
DC_Motor_Synchronization.elf:     file format elf32-littlenios2
DC_Motor_Synchronization.elf
architecture: nios2, flags 0x00000112:
EXEC_P, HAS_SYMS, D_PAGED
start address 0x000101c0

Program Header:
    LOAD off    0x00001020 vaddr 0x00010020 paddr 0x00010020 align 2**12
         filesz 0x000084d0 memsz 0x000086e8 flags rwx
    LOAD off    0x00009800 vaddr 0x00021800 paddr 0x00021800 align 2**12
         filesz 0x00000000 memsz 0x00000000 flags r-x

Sections:
Idx Name          Size      VMA       LMA       File off  Algn
  0 .entry        00000000  00021800  00021800  00009800  2**5
                  CONTENTS, ALLOC, LOAD, READONLY, CODE
  1 .exceptions   000001a0  00010020  00010020  00001020  2**2
                  CONTENTS, ALLOC, LOAD, READONLY, CODE
  2 .text         000077b8  000101c0  000101c0  000011c0  2**2
                  CONTENTS, ALLOC, LOAD, READONLY, CODE
  3 .rodata       00000448  00017978  00017978  00008978  2**2
                  CONTENTS, ALLOC, LOAD, READONLY, DATA
  4 .rwdata       00000730  00017dc0  00017dc0  00008dc0  2**2
                  CONTENTS, ALLOC, LOAD, DATA, SMALL_DATA
  5 .bss          00000218  000184f0  000184f0  000094f0  2**2
                  ALLOC, SMALL_DATA
  6 .comment      00000049  00000000  00000000  00009800  2**0
                  CONTENTS, READONLY
  7 .debug_aranges 00000890  00000000  00000000  00009850  2**3
                  CONTENTS, READONLY, DEBUGGING
  8 .debug_pubnames 00000f03  00000000  00000000  0000a0e0  2**0
                  CONTENTS, READONLY, DEBUGGING
  9 .debug_info   00010b12  00000000  00000000  0000afe3  2**0
                  CONTENTS, READONLY, DEBUGGING
 10 .debug_abbrev 00004b42  00000000  00000000  0001baf5  2**0
                  CONTENTS, READONLY, DEBUGGING
 11 .debug_line   0000b280  00000000  00000000  00020637  2**0
                  CONTENTS, READONLY, DEBUGGING
 12 .debug_frame  0000109c  00000000  00000000  0002b8b8  2**2
                  CONTENTS, READONLY, DEBUGGING
 13 .debug_str    000012e0  00000000  00000000  0002c954  2**0
                  CONTENTS, READONLY, DEBUGGING
 14 .debug_loc    0000317b  00000000  00000000  0002dc34  2**0
                  CONTENTS, READONLY, DEBUGGING
 15 .debug_alt_sim_info 00000040  00000000  00000000  00030db0  2**2
                  CONTENTS, READONLY, DEBUGGING
 16 .debug_ranges 000003f0  00000000  00000000  00030df0  2**3
                  CONTENTS, READONLY, DEBUGGING
 17 .thread_model 00000003  00000000  00000000  0003378d  2**0
                  CONTENTS, READONLY
 18 .cpu          00000003  00000000  00000000  00033790  2**0
                  CONTENTS, READONLY
 19 .qsys         00000001  00000000  00000000  00033793  2**0
                  CONTENTS, READONLY
 20 .simulation_enabled 00000001  00000000  00000000  00033794  2**0
                  CONTENTS, READONLY
 21 .sysid_hash   00000004  00000000  00000000  00033795  2**0
                  CONTENTS, READONLY
 22 .sysid_base   00000004  00000000  00000000  00033799  2**0
                  CONTENTS, READONLY
 23 .sysid_time   00000004  00000000  00000000  0003379d  2**0
                  CONTENTS, READONLY
 24 .stderr_dev   00000009  00000000  00000000  000337a1  2**0
                  CONTENTS, READONLY
 25 .stdin_dev    00000009  00000000  00000000  000337aa  2**0
                  CONTENTS, READONLY
 26 .stdout_dev   00000009  00000000  00000000  000337b3  2**0
                  CONTENTS, READONLY
 27 .sopc_system_name 0000000f  00000000  00000000  000337bc  2**0
                  CONTENTS, READONLY
 28 .quartus_project_dir 00000020  00000000  00000000  000337cb  2**0
                  CONTENTS, READONLY
 29 .jdi          00004e3c  00000000  00000000  000337eb  2**0
                  CONTENTS, READONLY
SYMBOL TABLE:
00021800 l    d  .entry	00000000 .entry
00010020 l    d  .exceptions	00000000 .exceptions
000101c0 l    d  .text	00000000 .text
00017978 l    d  .rodata	00000000 .rodata
00017dc0 l    d  .rwdata	00000000 .rwdata
000184f0 l    d  .bss	00000000 .bss
00000000 l    d  .comment	00000000 .comment
00000000 l    d  .debug_aranges	00000000 .debug_aranges
00000000 l    d  .debug_pubnames	00000000 .debug_pubnames
00000000 l    d  .debug_info	00000000 .debug_info
00000000 l    d  .debug_abbrev	00000000 .debug_abbrev
00000000 l    d  .debug_line	00000000 .debug_line
00000000 l    d  .debug_frame	00000000 .debug_frame
00000000 l    d  .debug_str	00000000 .debug_str
00000000 l    d  .debug_loc	00000000 .debug_loc
00000000 l    d  .debug_alt_sim_info	00000000 .debug_alt_sim_info
00000000 l    d  .debug_ranges	00000000 .debug_ranges
000101f4 l       .text	00000000 alt_after_alt_main
00000000 l    df *ABS*	00000000 alt_irq_handler.c
00000000 l    df *ABS*	00000000 dc_motor_sync.c
00000000 l    df *ABS*	00000000 sls_fonts.c
00000000 l    df *ABS*	00000000 simple_graphics.c
0001855c l     O .bss	00000004 LCD_INTERFACE_0_BASE
00000000 l    df *ABS*	00000000 libgcc2.c
00000000 l    df *ABS*	00000000 fp-bit.c
0001333c l     F .text	000001e4 _fpadd_parts
00000000 l    df *ABS*	00000000 fp-bit.c
00000000 l    df *ABS*	00000000 fp-bit.c
00000000 l    df *ABS*	00000000 fp-bit.c
00000000 l    df *ABS*	00000000 fp-bit.c
00000000 l    df *ABS*	00000000 fp-bit.c
00000000 l    df *ABS*	00000000 fp-bit.c
00000000 l    df *ABS*	00000000 dp-bit.c
00013b14 l     F .text	00000410 _fpadd_parts
00000000 l    df *ABS*	00000000 dp-bit.c
00000000 l    df *ABS*	00000000 dp-bit.c
00000000 l    df *ABS*	00000000 dp-bit.c
00000000 l    df *ABS*	00000000 dp-bit.c
00000000 l    df *ABS*	00000000 lib2-mul.c
00000000 l    df *ABS*	00000000 libgcc2.c
00000000 l    df *ABS*	00000000 libgcc2.c
00000000 l    df *ABS*	00000000 fp-bit.c
00000000 l    df *ABS*	00000000 fp-bit.c
00000000 l    df *ABS*	00000000 fp-bit.c
00000000 l    df *ABS*	00000000 dp-bit.c
00000000 l    df *ABS*	00000000 dp-bit.c
00000000 l    df *ABS*	00000000 libgcc2.c
00000000 l    df *ABS*	00000000 ctype_.c
00017c01 l     O .rodata	00000180 _ctype_b
00000000 l    df *ABS*	00000000 impure.c
000181d8 l     O .rwdata	000000e0 impure_data
00000000 l    df *ABS*	00000000 printf.c
00000000 l    df *ABS*	00000000 putc.c
00000000 l    df *ABS*	00000000 puts.c
00000000 l    df *ABS*	00000000 strlen.c
00000000 l    df *ABS*	00000000 vfprintf.c
000150e4 l     F .text	00000080 print_repeat
00000000 l    df *ABS*	00000000 fvwrite_small_dev.c
00000000 l    df *ABS*	00000000 writer.c
00000000 l    df *ABS*	00000000 int_errno.c
00000000 l    df *ABS*	00000000 lib2-divmod.c
000158bc l     F .text	0000007c udivmodsi4
00000000 l    df *ABS*	00000000 alt_close.c
00015b08 l     F .text	00000060 alt_get_errno
00000000 l    df *ABS*	00000000 alt_dev.c
00015b68 l     F .text	0000002c alt_dev_null_write
00000000 l    df *ABS*	00000000 alt_errno.c
00000000 l    df *ABS*	00000000 alt_main.c
00000000 l    df *ABS*	00000000 alt_open.c
00015c00 l     F .text	000000f8 alt_file_locked
00015e84 l     F .text	00000060 alt_get_errno
00000000 l    df *ABS*	00000000 alt_read.c
00016008 l     F .text	00000060 alt_get_errno
00000000 l    df *ABS*	00000000 alt_release_fd.c
00000000 l    df *ABS*	00000000 alt_usleep.c
00000000 l    df *ABS*	00000000 alt_write.c
00016234 l     F .text	00000060 alt_get_errno
00000000 l    df *ABS*	00000000 alt_sys_init.c
00018460 l     O .rwdata	0000002c jtag_uart
0001848c l     O .rwdata	0000002c uart_0
0001631c l     F .text	00000038 alt_dev_reg
00000000 l    df *ABS*	00000000 altera_avalon_jtag_uart_fd.c
00000000 l    df *ABS*	00000000 altera_avalon_jtag_uart_read.c
00000000 l    df *ABS*	00000000 altera_avalon_jtag_uart_write.c
00000000 l    df *ABS*	00000000 altera_avalon_timer_sc.c
000165ac l     F .text	00000070 alt_avalon_timer_sc_irq
00000000 l    df *ABS*	00000000 altera_avalon_uart_fd.c
00000000 l    df *ABS*	00000000 altera_avalon_uart_read.c
0001682c l     F .text	00000060 alt_get_errno
00000000 l    df *ABS*	00000000 altera_avalon_uart_write.c
0001697c l     F .text	00000060 alt_get_errno
00000000 l    df *ABS*	00000000 alt_busy_sleep.c
00000000 l    df *ABS*	00000000 alt_dev_llist_insert.c
00016bec l     F .text	00000060 alt_get_errno
00000000 l    df *ABS*	00000000 alt_do_ctors.c
00000000 l    df *ABS*	00000000 alt_do_dtors.c
00000000 l    df *ABS*	00000000 alt_find_dev.c
00000000 l    df *ABS*	00000000 alt_find_file.c
00000000 l    df *ABS*	00000000 alt_get_fd.c
00000000 l    df *ABS*	00000000 alt_iic.c
00000000 l    df *ABS*	00000000 alt_iic_isr_register.c
00000000 l    df *ABS*	00000000 alt_io_redirect.c
00017264 l     F .text	000000d8 alt_open_fd
00000000 l    df *ABS*	00000000 alt_irq_vars.c
00000000 l    df *ABS*	00000000 alt_tick.c
00000000 l    df *ABS*	00000000 altera_nios2_qsys_irq.c
00000000 l    df *ABS*	00000000 atexit.c
00000000 l    df *ABS*	00000000 exit.c
00000000 l    df *ABS*	00000000 memcmp.c
00000000 l    df *ABS*	00000000 __atexit.c
00000000 l    df *ABS*	00000000 __call_atexit.c
00017754 l     F .text	00000004 register_fini
00000000 l    df *ABS*	00000000 alt_exit.c
00017914 l     F .text	00000040 alt_sim_halt
00015b94 g     F .text	0000006c alt_main
00015020 g     F .text	00000090 _puts_r
0001857c g     O .bss	00000100 alt_irq
000108c8 g     F .text	00000250 turn_right
000184b8 g     O .rwdata	00000004 dc_m1_pwm_freq
00012088 g     F .text	000000f0 LCD_merge_colors
00014ea4 g     F .text	00000054 printf
000137d4 g     F .text	00000174 __divsf3
00018508 g     O .bss	00000004 j
00017dc0 g     O .rwdata	00000415 cour10_font_array
000139c0 g     F .text	00000094 __fixsfsi
00012cd4 g     F .text	000005f8 LCD_round_corner_points
00000000  w      *UND*	00000000 __errno
00021800 g     F .entry	00000000 __reset
0001850c g     O .bss	00000004 Err_m1
00018560 g     O .bss	00000004 errno
00018568 g     O .bss	00000004 alt_argv
000204b8 g       *ABS*	00000000 _gp
000160e0 g     F .text	00000030 usleep
00013520 g     F .text	00000070 __subsf3
00011a5c g     F .text	000000e8 LCD_print_char
000182e0 g     O .rwdata	00000180 alt_fd_list
00016d14 g     F .text	00000094 alt_find_dev
00010354 g     F .text	0000028c pid_controller_sw
000143dc g     F .text	000000f8 __floatsidf
0001733c g     F .text	00000078 alt_io_redirect
00017978 g       *ABS*	00000000 __DTOR_END__
000150b0 g     F .text	00000014 puts
000117dc g     F .text	0000016c LCD_print_string
00016404 g     F .text	00000104 altera_avalon_jtag_uart_read
00000000  w      *UND*	00000000 malloc
00014ef8 g     F .text	00000044 _printf_r
000159f8 g     F .text	00000008 __udivsi3
00018510 g     O .bss	00000004 Up1_m2
00010d44 g     F .text	0000026c move_bwd
000184f0 g     O .bss	00000008 OutPreSat_m1
000184e0 g     O .rwdata	00000004 alt_max_fd
00014d6c g     F .text	00000138 __unpack_d
00018514 g     O .bss	00000004 dc_m1_pwm_duty
000112e0 g     F .text	00000450 LCD_init
00013fa4 g     F .text	00000074 __adddf3
00012534 g     F .text	00000444 LCD_circle_points
00018518 g     O .bss	00000004 Ud_m2
000184cc g     O .rwdata	00000004 _global_impure_ptr
00019c40 g       *ABS*	00000000 __alt_exception_stack_pointer
00018708 g       *ABS*	00000000 __bss_end
0001716c g     F .text	000000f8 alt_iic_isr_register
0001744c g     F .text	0000010c alt_tick
000184f8 g     O .bss	00000008 OutPreSat_m2
00010678 g     F .text	00000250 turn_left
000184c4 g     O .rwdata	00000004 __ctype_ptr
00017124 g     F .text	00000048 alt_ic_irq_enabled
000173b4 g     F .text	00000098 alt_alarm_stop
00018570 g     O .bss	00000004 alt_irq_active
000100f8 g     F .exceptions	000000c8 alt_irq_handler
000182b8 g     O .rwdata	00000028 alt_dev_null
000105e0 g     F .text	0000004c isr_dc_m2
00018504 g     O .bss	00000004 Ui_m2
000148e8 g     F .text	000000c8 __unpack_f
000144d4 g     F .text	000000d8 __fixdfsi
00011c64 g     F .text	0000014c LCD_get_pixel
000101f8 g     F .text	0000015c pid_controller_hw
000184d8 g     O .rwdata	00000008 alt_dev_list
00016110 g     F .text	00000124 write
00014fac g     F .text	00000074 _putc_r
00015a00 g     F .text	00000008 __umodsi3
00018708 g       *ABS*	00000000 end
00014788 g     F .text	00000160 __pack_f
0001688c g     F .text	000000f0 altera_avalon_uart_write
0001851c g     O .bss	00000004 i
00017974 g       *ABS*	00000000 __CTOR_LIST__
00019440 g       *ABS*	00000000 __alt_stack_pointer
0001661c g     F .text	00000090 alt_avalon_timer_sc_init
00016704 g     F .text	00000058 altera_avalon_uart_write_fd
00014708 g     F .text	00000080 __clzsi2
00016508 g     F .text	000000a4 altera_avalon_jtag_uart_write
00015164 g     F .text	00000600 ___vfprintf_internal_r
00018520 g     O .bss	00000004 Up_m2
00017758 g     F .text	000001bc __call_exitprocs
000101c0 g     F .text	00000038 _start
00018524 g     O .bss	00000001 wall_detect
00018574 g     O .bss	00000004 _alt_tick_rate
00018528 g     O .bss	00000004 dc2_cmp
0001852c g     O .bss	00000004 Err_m2
00018578 g     O .bss	00000004 _alt_nticks
00015ee4 g     F .text	00000124 read
000162c8 g     F .text	00000054 alt_sys_init
000123ec g     F .text	00000148 LCD_draw_circle
000175e8 g     F .text	0000016c __register_exitproc
000145ac g     F .text	00000038 __mulsi3
00016354 g     F .text	00000058 altera_avalon_jtag_uart_read_fd
00016ec8 g     F .text	000000d0 alt_get_fd
000169dc g     F .text	0000015c alt_busy_sleep
000175ac g     F .text	0000003c memcmp
00018708 g       *ABS*	00000000 __alt_stack_base
00018530 g     O .bss	00000004 dc_m1
00014018 g     F .text	000003c4 __muldf3
000179dc g     O .rodata	00000010 __thenan_sf
00016da8 g     F .text	00000120 alt_find_file
00016b38 g     F .text	000000b4 alt_dev_llist_insert
00015788 g     F .text	000000bc __sfvwrite_small_dev
00018534 g     O .bss	00000004 Up_m1
000184f0 g       *ABS*	00000000 __bss_start
00010fb0 g     F .text	00000330 main
00010b18 g     F .text	0000022c move_fwd
0001856c g     O .bss	00000004 alt_envp
0001062c g     F .text	0000004c isr_dc_m1
00018538 g     O .bss	00000004 dc_m2_pwm_duty
000163ac g     F .text	00000058 altera_avalon_jtag_uart_write_fd
000184c0 g     O .rwdata	00000004 cour10_font
0001867c g     O .bss	0000008c _atexit0
000184e4 g     O .rwdata	00000004 alt_errno
00014f3c g     F .text	00000070 putc
00015938 g     F .text	00000060 __divsi3
000179ec g     O .rodata	00000014 __thenan_df
00017978 g       *ABS*	00000000 __CTOR_END__
000135f4 g     F .text	000001e0 __mulsf3
00017978 g       *ABS*	00000000 __DTOR_LIST__
00016294 g     F .text	00000034 alt_irq_init
00016068 g     F .text	00000078 alt_release_fd
00017a00 g     O .rodata	00000100 __clz_tab
00011b44 g     F .text	00000120 LCD_set_pixel
00017578 g     F .text	00000014 atexit
00011db0 g     F .text	00000178 LCD_paint_block
00013948 g     F .text	00000078 __gesf2
00015844 g     F .text	00000078 _write_r
000184c8 g     O .rwdata	00000004 _impure_ptr
00018564 g     O .bss	00000004 alt_argc
00016cb0 g     F .text	00000064 _do_dtors
0001853c g     O .bss	00000004 edge
00010020 g       .exceptions	00000000 alt_irq_entry
00012978 g     F .text	0000035c LCD_draw_round_corner_box
00011f28 g     F .text	00000160 LCD_draw_horiz_line
000184d0 g     O .rwdata	00000008 alt_fs_list
000184bc g     O .rwdata	00000004 dc_m2_pwm_freq
00012178 g     F .text	00000274 LCD_draw_sloped_line
00018540 g     O .bss	00000004 Ud_m1
00016f98 g     F .text	00000050 alt_ic_isr_register
000184f0 g       *ABS*	00000000 _edata
000166ac g     F .text	00000058 altera_avalon_uart_read_fd
00018708 g       *ABS*	00000000 _end
00017084 g     F .text	000000a0 alt_ic_irq_disable
00017558 g     F .text	00000020 altera_nios2_qsys_irq_init
0001758c g     F .text	00000020 exit
00013a54 g     F .text	000000c0 __floatunsisf
00018544 g     O .bss	00000004 Out_pwm2
00015998 g     F .text	00000060 __modsi3
00018548 g     O .bss	00000004 dc1_cmp
00019440 g       *ABS*	00000000 __alt_data_end
00010020 g     F .exceptions	00000000 alt_exception
0001854c g     O .bss	00000004 Up1_m1
00017b00 g     O .rodata	00000101 _ctype_
00010000 g       *ABS*	00000000 __alt_mem_onchip_ram
000132cc g     F .text	00000070 __fixunssfsi
000149b0 g     F .text	000000a8 __fpcmp_parts_f
00017954 g     F .text	00000020 _exit
000145e4 g     F .text	00000124 __muldi3
000150c4 g     F .text	00000020 strlen
00018550 g     O .bss	00000004 Out_pwm1
00015cf8 g     F .text	0000018c open
00016fe8 g     F .text	0000009c alt_ic_irq_enable
00015764 g     F .text	00000024 __vfprintf_internal
00021800 g       *ABS*	00000000 __alt_mem_epcs
0001675c g     F .text	000000d0 altera_avalon_uart_read
00011948 g     F .text	00000114 LCD_draw_box
00013f24 g     F .text	00000080 __subdf3
00018554 g     O .bss	00000004 dc_m2
000184e8 g     O .rwdata	00000008 alt_alarm_list
00016c4c g     F .text	00000064 _do_ctors
00015a08 g     F .text	00000100 close
00013590 g     F .text	00000064 __addsf3
00011730 g     F .text	000000ac LCD_draw_line
00014a58 g     F .text	00000314 __pack_d
00000000  w      *UND*	00000000 free
00018558 g     O .bss	00000001 table_edge
00018500 g     O .bss	00000004 Ui_m1



Disassembly of section .exceptions:

00010020 <alt_exception>:

#ifdef ALT_STACK_CHECK
        stw   et, %gprel(alt_exception_old_stack_limit)(gp)
#endif

        movhi et, %hiadj(__alt_exception_stack_pointer - 80)
   10020:	060000b4 	movhi	et,2
        addi  et, et, %lo(__alt_exception_stack_pointer - 80) 
   10024:	c626fc04 	addi	et,et,-25616
        stw   sp, 76(et)
   10028:	c6c01315 	stw	sp,76(et)
        mov   sp, et
   1002c:	c037883a 	mov	sp,et

#endif

#endif

        stw   ra,  0(sp)
   10030:	dfc00015 	stw	ra,0(sp)
        /*
         * Leave a gap in the stack frame at 4(sp) for the muldiv handler to
         * store zero into.
         */

        stw   r1,   8(sp)
   10034:	d8400215 	stw	at,8(sp)
        stw   r2,  12(sp)
   10038:	d8800315 	stw	r2,12(sp)
        stw   r3,  16(sp)
   1003c:	d8c00415 	stw	r3,16(sp)
        stw   r4,  20(sp)
   10040:	d9000515 	stw	r4,20(sp)
        stw   r5,  24(sp)
   10044:	d9400615 	stw	r5,24(sp)
        stw   r6,  28(sp)
   10048:	d9800715 	stw	r6,28(sp)
        stw   r7,  32(sp)
   1004c:	d9c00815 	stw	r7,32(sp)

        rdctl r5, estatus
   10050:	000b307a 	rdctl	r5,estatus

        stw   r8,  36(sp)
   10054:	da000915 	stw	r8,36(sp)
        stw   r9,  40(sp)
   10058:	da400a15 	stw	r9,40(sp)
        stw   r10, 44(sp)
   1005c:	da800b15 	stw	r10,44(sp)
        stw   r11, 48(sp)
   10060:	dac00c15 	stw	r11,48(sp)
        stw   r12, 52(sp)
   10064:	db000d15 	stw	r12,52(sp)
        stw   r13, 56(sp)
   10068:	db400e15 	stw	r13,56(sp)
        stw   r14, 60(sp)
   1006c:	db800f15 	stw	r14,60(sp)
        stw   r15, 64(sp)
   10070:	dbc01015 	stw	r15,64(sp)
        /*
         * ea-4 contains the address of the instruction being executed
         * when the exception occured. For interrupt exceptions, we will
         * will be re-issue the isntruction. Store it in 72(sp)
         */
        stw   r5,  68(sp)  /* estatus */
   10074:	d9401115 	stw	r5,68(sp)
        addi  r15, ea, -4  /* instruction that caused exception */
   10078:	ebffff04 	addi	r15,ea,-4
        stw   r15,  72(sp)
   1007c:	dbc01215 	stw	r15,72(sp)
#else
        /*
         * Test to see if the exception was a software exception or caused 
         * by an external interrupt, and vector accordingly.
         */
        rdctl r4, ipending
   10080:	0009313a 	rdctl	r4,ipending
        andi  r2, r5, 1
   10084:	2880004c 	andi	r2,r5,1
        beq   r2, zero, .Lnot_irq
   10088:	10000326 	beq	r2,zero,10098 <alt_exception+0x78>
        beq   r4, zero, .Lnot_irq
   1008c:	20000226 	beq	r4,zero,10098 <alt_exception+0x78>
        /*
         * Now that all necessary registers have been preserved, call 
         * alt_irq_handler() to process the interrupts.
         */

        call alt_irq_handler
   10090:	00100f80 	call	100f8 <alt_irq_handler>

        .section .exceptions.irqreturn, "xa"

        br    .Lexception_exit
   10094:	00000306 	br	100a4 <alt_exception+0x84>
         * upon completion, so we write ea (address of instruction *after*
         * the one where the exception occured) into 72(sp). The actual
         * instruction that caused the exception is written in r2, which these
         * handlers will utilize.
         */
        stw   ea,  72(sp)  /* Don't re-issue */
   10098:	df401215 	stw	ea,72(sp)
        ldw   r2, -4(ea)   /* Instruction that caused exception */
   1009c:	e8bfff17 	ldw	r2,-4(ea)
#ifdef NIOS2_HAS_DEBUG_STUB
       /*
        *  Either tell the user now (if there is a debugger attached) or go into
        *  the debug monitor which will loop until a debugger is attached.
        */
        break
   100a0:	003da03a 	break	0
        /* 
         * Restore the saved registers, so that all general purpose registers 
         * have been restored to their state at the time the interrupt occured.
         */

        ldw   r5,  68(sp)
   100a4:	d9401117 	ldw	r5,68(sp)
        ldw   ea,  72(sp)  /* This becomes the PC once eret is executed */
   100a8:	df401217 	ldw	ea,72(sp)
        ldw   ra,   0(sp)
   100ac:	dfc00017 	ldw	ra,0(sp)

        wrctl estatus, r5
   100b0:	2801707a 	wrctl	estatus,r5

        ldw   r1,   8(sp)
   100b4:	d8400217 	ldw	at,8(sp)
        ldw   r2,  12(sp)
   100b8:	d8800317 	ldw	r2,12(sp)
        ldw   r3,  16(sp)
   100bc:	d8c00417 	ldw	r3,16(sp)
        ldw   r4,  20(sp)
   100c0:	d9000517 	ldw	r4,20(sp)
        ldw   r5,  24(sp)
   100c4:	d9400617 	ldw	r5,24(sp)
        ldw   r6,  28(sp)
   100c8:	d9800717 	ldw	r6,28(sp)
        ldw   r7,  32(sp)
   100cc:	d9c00817 	ldw	r7,32(sp)
#ifdef ALT_STACK_CHECK
        ldw   et, %gprel(alt_exception_old_stack_limit)(gp)
#endif
#endif

        ldw   r8,  36(sp)
   100d0:	da000917 	ldw	r8,36(sp)
        ldw   r9,  40(sp)
   100d4:	da400a17 	ldw	r9,40(sp)
        ldw   r10, 44(sp)
   100d8:	da800b17 	ldw	r10,44(sp)
        ldw   r11, 48(sp)
   100dc:	dac00c17 	ldw	r11,48(sp)
        ldw   r12, 52(sp)
   100e0:	db000d17 	ldw	r12,52(sp)
        ldw   r13, 56(sp)
   100e4:	db400e17 	ldw	r13,56(sp)
        ldw   r14, 60(sp)
   100e8:	db800f17 	ldw	r14,60(sp)
        ldw   r15, 64(sp)
   100ec:	dbc01017 	ldw	r15,64(sp)
#ifdef ALT_STACK_CHECK
        stw   et, %gprel(alt_stack_limit_value)(gp)
        stw   zero, %gprel(alt_exception_old_stack_limit)(gp)
#endif

        ldw   sp,  76(sp)
   100f0:	dec01317 	ldw	sp,76(sp)

        /*
         * Return to the interrupted instruction.
         */

        eret
   100f4:	ef80083a 	eret

000100f8 <alt_irq_handler>:
 * instruction is present if the macro ALT_CI_INTERRUPT_VECTOR defined.
 */

void alt_irq_handler (void) __attribute__ ((section (".exceptions")));
void alt_irq_handler (void)
{
   100f8:	defff904 	addi	sp,sp,-28
   100fc:	dfc00615 	stw	ra,24(sp)
   10100:	df000515 	stw	fp,20(sp)
   10104:	df000504 	addi	fp,sp,20
#ifndef NIOS2_EIC_PRESENT
static ALT_INLINE alt_u32 ALT_ALWAYS_INLINE alt_irq_pending (void)
{
  alt_u32 active;

  NIOS2_READ_IPENDING (active);
   10108:	0005313a 	rdctl	r2,ipending
   1010c:	e0bffc15 	stw	r2,-16(fp)

  return active;
   10110:	e0bffc17 	ldw	r2,-16(fp)
   * Consider the case where the high priority interupt is asserted during
   * the interrupt entry sequence for a lower priority interrupt to see why
   * this is the case.
   */

  active = alt_irq_pending ();
   10114:	e0bfff15 	stw	r2,-4(fp)

  do
  {
    i = 0;
   10118:	e03ffd15 	stw	zero,-12(fp)
    mask = 1;
   1011c:	00800044 	movi	r2,1
   10120:	e0bffe15 	stw	r2,-8(fp)
     * called to clear the interrupt condition.
     */

    do
    {
      if (active & mask)
   10124:	e0ffff17 	ldw	r3,-4(fp)
   10128:	e0bffe17 	ldw	r2,-8(fp)
   1012c:	1884703a 	and	r2,r3,r2
   10130:	1005003a 	cmpeq	r2,r2,zero
   10134:	1000161e 	bne	r2,zero,10190 <alt_irq_handler+0x98>
      { 
#ifdef ALT_ENHANCED_INTERRUPT_API_PRESENT
        alt_irq[i].handler(alt_irq[i].context); 
   10138:	e0bffd17 	ldw	r2,-12(fp)
   1013c:	00c000b4 	movhi	r3,2
   10140:	18e15f04 	addi	r3,r3,-31364
   10144:	100490fa 	slli	r2,r2,3
   10148:	10c5883a 	add	r2,r2,r3
   1014c:	11400017 	ldw	r5,0(r2)
   10150:	e0bffd17 	ldw	r2,-12(fp)
   10154:	00c000b4 	movhi	r3,2
   10158:	18e15f04 	addi	r3,r3,-31364
   1015c:	100490fa 	slli	r2,r2,3
   10160:	10c5883a 	add	r2,r2,r3
   10164:	10800104 	addi	r2,r2,4
   10168:	11000017 	ldw	r4,0(r2)
   1016c:	283ee83a 	callr	r5
#ifndef NIOS2_EIC_PRESENT
static ALT_INLINE alt_u32 ALT_ALWAYS_INLINE alt_irq_pending (void)
{
  alt_u32 active;

  NIOS2_READ_IPENDING (active);
   10170:	0005313a 	rdctl	r2,ipending
   10174:	e0bffb15 	stw	r2,-20(fp)

  return active;
   10178:	e0bffb17 	ldw	r2,-20(fp)
      mask <<= 1;
      i++;

    } while (1);

    active = alt_irq_pending ();
   1017c:	e0bfff15 	stw	r2,-4(fp)
    
  } while (active);
   10180:	e0bfff17 	ldw	r2,-4(fp)
   10184:	1004c03a 	cmpne	r2,r2,zero
   10188:	103fe31e 	bne	r2,zero,10118 <alt_irq_handler+0x20>
   1018c:	00000706 	br	101ac <alt_irq_handler+0xb4>
#else
        alt_irq[i].handler(alt_irq[i].context, i); 
#endif
        break;
      }
      mask <<= 1;
   10190:	e0bffe17 	ldw	r2,-8(fp)
   10194:	1085883a 	add	r2,r2,r2
   10198:	e0bffe15 	stw	r2,-8(fp)
      i++;
   1019c:	e0bffd17 	ldw	r2,-12(fp)
   101a0:	10800044 	addi	r2,r2,1
   101a4:	e0bffd15 	stw	r2,-12(fp)

    } while (1);
   101a8:	003fde06 	br	10124 <alt_irq_handler+0x2c>
  /*
   * Notify the operating system that interrupt processing is complete.
   */ 

  ALT_OS_INT_EXIT();
}
   101ac:	e037883a 	mov	sp,fp
   101b0:	dfc00117 	ldw	ra,4(sp)
   101b4:	df000017 	ldw	fp,0(sp)
   101b8:	dec00204 	addi	sp,sp,8
   101bc:	f800283a 	ret

Disassembly of section .text:

000101c0 <_start>:
#if (NIOS2_NUM_OF_SHADOW_REG_SETS == 0)    
    /*
     * Now that the caches are initialized, set up the stack pointer.
     * The value provided by the linker is assumed to be correctly aligned.
     */
    movhi sp, %hi(__alt_stack_pointer)
   101c0:	06c00074 	movhi	sp,1
    ori sp, sp, %lo(__alt_stack_pointer)
   101c4:	dee51014 	ori	sp,sp,37952

    /* Set up the global pointer. */
    movhi gp, %hi(_gp)
   101c8:	068000b4 	movhi	gp,2
    ori gp, gp, %lo(_gp)
   101cc:	d6812e14 	ori	gp,gp,1208
 */
#ifndef ALT_SIM_OPTIMIZE
    /* Log that the BSS is about to be cleared. */
    ALT_LOG_PUTS(alt_log_msg_bss)

    movhi r2, %hi(__bss_start)
   101d0:	00800074 	movhi	r2,1
    ori r2, r2, %lo(__bss_start)
   101d4:	10a13c14 	ori	r2,r2,34032

    movhi r3, %hi(__bss_end)
   101d8:	00c00074 	movhi	r3,1
    ori r3, r3, %lo(__bss_end)
   101dc:	18e1c214 	ori	r3,r3,34568

    beq r2, r3, 1f
   101e0:	10c00326 	beq	r2,r3,101f0 <_start+0x30>

0:
    stw zero, (r2)
   101e4:	10000015 	stw	zero,0(r2)
    addi r2, r2, 4
   101e8:	10800104 	addi	r2,r2,4
    bltu r2, r3, 0b
   101ec:	10fffd36 	bltu	r2,r3,101e4 <_start+0x24>

    /* Log that alt_main is about to be called. */
    ALT_LOG_PUTS(alt_log_msg_alt_main)

    /* Call the C entry point. It should never return. */
    call alt_main
   101f0:	0015b940 	call	15b94 <alt_main>

000101f4 <alt_after_alt_main>:

    /* Wait in infinite loop in case alt_main does return. */
alt_after_alt_main:
    br alt_after_alt_main
   101f4:	003fff06 	br	101f4 <alt_after_alt_main>

000101f8 <pid_controller_hw>:
int Out_pwm1,Out_pwm2;
int i,j;

//------------------------------- PID Hardware-Software Functions -----------------------//
void pid_controller_hw()
{
   101f8:	deffff04 	addi	sp,sp,-4
   101fc:	df000015 	stw	fp,0(sp)
   10200:	d839883a 	mov	fp,sp
    IOWR(PID_CON_M1_BASE,0x04,dc_m1);        //Feedback
   10204:	d0a01e17 	ldw	r2,-32648(gp)
   10208:	1007883a 	mov	r3,r2
   1020c:	00800404 	movi	r2,16
   10210:	10c00035 	stwio	r3,0(r2)
	IOWR(PID_CON_M2_BASE,0x04,dc_m2);
   10214:	d0a02717 	ldw	r2,-32612(gp)
   10218:	1007883a 	mov	r3,r2
   1021c:	00800c04 	movi	r2,48
   10220:	10c00035 	stwio	r3,0(r2)

	IOWR(PID_CON_M1_BASE,0x05,1);           // PID enable
   10224:	00c00504 	movi	r3,20
   10228:	00800044 	movi	r2,1
   1022c:	18800035 	stwio	r2,0(r3)
	IOWR(PID_CON_M2_BASE,0x05,1);
   10230:	00c00d04 	movi	r3,52
   10234:	00800044 	movi	r2,1
   10238:	18800035 	stwio	r2,0(r3)

	while(IORD(PID_CON_M1_BASE,0x07) != 1);
   1023c:	00800704 	movi	r2,28
   10240:	10800037 	ldwio	r2,0(r2)
   10244:	10800058 	cmpnei	r2,r2,1
   10248:	103ffc1e 	bne	r2,zero,1023c <pid_controller_hw+0x44>

	OutPreSat_m1[0]=OutPreSat_m1[1];
   1024c:	008000b4 	movhi	r2,2
   10250:	10a13d04 	addi	r2,r2,-31500
   10254:	10800017 	ldw	r2,0(r2)
   10258:	d0a00e15 	stw	r2,-32712(gp)
	OutPreSat_m1[1]=IORD(PID_CON_M1_BASE,0x06);
   1025c:	00800604 	movi	r2,24
   10260:	10c00037 	ldwio	r3,0(r2)
   10264:	008000b4 	movhi	r2,2
   10268:	10a13d04 	addi	r2,r2,-31500
   1026c:	10c00015 	stw	r3,0(r2)

	OutPreSat_m2[0]=OutPreSat_m2[1];
   10270:	008000b4 	movhi	r2,2
   10274:	10a13f04 	addi	r2,r2,-31492
   10278:	10800017 	ldw	r2,0(r2)
   1027c:	d0a01015 	stw	r2,-32704(gp)
	OutPreSat_m2[1]=IORD(PID_CON_M2_BASE,0x06);
   10280:	00800e04 	movi	r2,56
   10284:	10c00037 	ldwio	r3,0(r2)
   10288:	008000b4 	movhi	r2,2
   1028c:	10a13f04 	addi	r2,r2,-31492
   10290:	10c00015 	stw	r3,0(r2)

	Out_pwm1 = Out_pwm1 - (OutPreSat_m1[1] - OutPreSat_m1[0]);
   10294:	d1202617 	ldw	r4,-32616(gp)
   10298:	008000b4 	movhi	r2,2
   1029c:	10a13d04 	addi	r2,r2,-31500
   102a0:	10c00017 	ldw	r3,0(r2)
   102a4:	d0a00e17 	ldw	r2,-32712(gp)
   102a8:	1885c83a 	sub	r2,r3,r2
   102ac:	2085c83a 	sub	r2,r4,r2
   102b0:	d0a02615 	stw	r2,-32616(gp)
	Out_pwm2 = Out_pwm2 - (OutPreSat_m2[1] - OutPreSat_m2[0]);
   102b4:	d1202317 	ldw	r4,-32628(gp)
   102b8:	008000b4 	movhi	r2,2
   102bc:	10a13f04 	addi	r2,r2,-31492
   102c0:	10c00017 	ldw	r3,0(r2)
   102c4:	d0a01017 	ldw	r2,-32704(gp)
   102c8:	1885c83a 	sub	r2,r3,r2
   102cc:	2085c83a 	sub	r2,r4,r2
   102d0:	d0a02315 	stw	r2,-32628(gp)

    if(Out_pwm1 > OutMax)
   102d4:	d0e02617 	ldw	r3,-32616(gp)
   102d8:	00bfffd4 	movui	r2,65535
   102dc:	10c0030e 	bge	r2,r3,102ec <pid_controller_hw+0xf4>
		Out_pwm1 = OutMax;
   102e0:	00bfffd4 	movui	r2,65535
   102e4:	d0a02615 	stw	r2,-32616(gp)
   102e8:	00000406 	br	102fc <pid_controller_hw+0x104>
	else if(Out_pwm1 < OutMin)
   102ec:	d0a02617 	ldw	r2,-32616(gp)
   102f0:	1004403a 	cmpge	r2,r2,zero
   102f4:	1000011e 	bne	r2,zero,102fc <pid_controller_hw+0x104>
		Out_pwm1 = OutMin;
   102f8:	d0202615 	stw	zero,-32616(gp)

	if(Out_pwm2 > OutMax)
   102fc:	d0e02317 	ldw	r3,-32628(gp)
   10300:	00bfffd4 	movui	r2,65535
   10304:	10c0030e 	bge	r2,r3,10314 <pid_controller_hw+0x11c>
		Out_pwm2 = OutMax;
   10308:	00bfffd4 	movui	r2,65535
   1030c:	d0a02315 	stw	r2,-32628(gp)
   10310:	00000406 	br	10324 <pid_controller_hw+0x12c>
	else if(Out_pwm2 < OutMin)
   10314:	d0a02317 	ldw	r2,-32628(gp)
   10318:	1004403a 	cmpge	r2,r2,zero
   1031c:	1000011e 	bne	r2,zero,10324 <pid_controller_hw+0x12c>
		Out_pwm2 = OutMin;
   10320:	d0202315 	stw	zero,-32628(gp)

    IOWR(DC1_PWM1_BASE+0x04,0,Out_pwm1);
   10324:	d0e02617 	ldw	r3,-32616(gp)
   10328:	008000b4 	movhi	r2,2
   1032c:	10885104 	addi	r2,r2,8516
   10330:	10c00035 	stwio	r3,0(r2)
    IOWR(DC2_PWM1_BASE+0x04,0,Out_pwm2);
   10334:	d0e02317 	ldw	r3,-32628(gp)
   10338:	008000b4 	movhi	r2,2
   1033c:	10885504 	addi	r2,r2,8532
   10340:	10c00035 	stwio	r3,0(r2)
}
   10344:	e037883a 	mov	sp,fp
   10348:	df000017 	ldw	fp,0(sp)
   1034c:	dec00104 	addi	sp,sp,4
   10350:	f800283a 	ret

00010354 <pid_controller_sw>:

void pid_controller_sw()
{
   10354:	defffc04 	addi	sp,sp,-16
   10358:	dfc00315 	stw	ra,12(sp)
   1035c:	df000215 	stw	fp,8(sp)
   10360:	dc400115 	stw	r17,4(sp)
   10364:	dc000015 	stw	r16,0(sp)
   10368:	d839883a 	mov	fp,sp
	Err_m1 = DC_M1_COUNT_REF - dc_m1;
   1036c:	d0e01e17 	ldw	r3,-32648(gp)
   10370:	00801904 	movi	r2,100
   10374:	10c5c83a 	sub	r2,r2,r3
   10378:	d0a01515 	stw	r2,-32684(gp)
    Err_m2 = DC_M2_COUNT_REF - dc_m2;
   1037c:	d0e02717 	ldw	r3,-32612(gp)
   10380:	00801904 	movi	r2,100
   10384:	10c5c83a 	sub	r2,r2,r3
   10388:	d0a01d15 	stw	r2,-32652(gp)

    Up_m1 = dc_m1_Kp * Err_m1;            //P Controller
   1038c:	d1201517 	ldw	r4,-32684(gp)
   10390:	01400184 	movi	r5,6
   10394:	00145ac0 	call	145ac <__mulsi3>
   10398:	d0a01f15 	stw	r2,-32644(gp)
    Up_m2 = dc_m2_Kp * Err_m2;
   1039c:	d1201d17 	ldw	r4,-32652(gp)
   103a0:	01400184 	movi	r5,6
   103a4:	00145ac0 	call	145ac <__mulsi3>
   103a8:	d0a01a15 	stw	r2,-32664(gp)

    Ui_m1 = Ui_m1 + dc_m1_Ki * Up_m1;     //I Controller
   103ac:	d1201217 	ldw	r4,-32696(gp)
   103b0:	00143dc0 	call	143dc <__floatsidf>
   103b4:	1021883a 	mov	r16,r2
   103b8:	1823883a 	mov	r17,r3
   103bc:	d1201f17 	ldw	r4,-32644(gp)
   103c0:	00143dc0 	call	143dc <__floatsidf>
   103c4:	100b883a 	mov	r5,r2
   103c8:	180d883a 	mov	r6,r3
   103cc:	2809883a 	mov	r4,r5
   103d0:	300b883a 	mov	r5,r6
   103d4:	000d883a 	mov	r6,zero
   103d8:	01cff834 	movhi	r7,16352
   103dc:	00140180 	call	14018 <__muldf3>
   103e0:	1009883a 	mov	r4,r2
   103e4:	180b883a 	mov	r5,r3
   103e8:	2005883a 	mov	r2,r4
   103ec:	2807883a 	mov	r3,r5
   103f0:	8009883a 	mov	r4,r16
   103f4:	880b883a 	mov	r5,r17
   103f8:	100d883a 	mov	r6,r2
   103fc:	180f883a 	mov	r7,r3
   10400:	0013fa40 	call	13fa4 <__adddf3>
   10404:	1009883a 	mov	r4,r2
   10408:	180b883a 	mov	r5,r3
   1040c:	2005883a 	mov	r2,r4
   10410:	2807883a 	mov	r3,r5
   10414:	1009883a 	mov	r4,r2
   10418:	180b883a 	mov	r5,r3
   1041c:	00144d40 	call	144d4 <__fixdfsi>
   10420:	d0a01215 	stw	r2,-32696(gp)
    Ui_m2 = Ui_m2 + dc_m2_Ki * Up_m2;
   10424:	d1201317 	ldw	r4,-32692(gp)
   10428:	00143dc0 	call	143dc <__floatsidf>
   1042c:	1021883a 	mov	r16,r2
   10430:	1823883a 	mov	r17,r3
   10434:	d1201a17 	ldw	r4,-32664(gp)
   10438:	00143dc0 	call	143dc <__floatsidf>
   1043c:	100b883a 	mov	r5,r2
   10440:	180d883a 	mov	r6,r3
   10444:	2809883a 	mov	r4,r5
   10448:	300b883a 	mov	r5,r6
   1044c:	000d883a 	mov	r6,zero
   10450:	01cff834 	movhi	r7,16352
   10454:	00140180 	call	14018 <__muldf3>
   10458:	1009883a 	mov	r4,r2
   1045c:	180b883a 	mov	r5,r3
   10460:	2005883a 	mov	r2,r4
   10464:	2807883a 	mov	r3,r5
   10468:	8009883a 	mov	r4,r16
   1046c:	880b883a 	mov	r5,r17
   10470:	100d883a 	mov	r6,r2
   10474:	180f883a 	mov	r7,r3
   10478:	0013fa40 	call	13fa4 <__adddf3>
   1047c:	1009883a 	mov	r4,r2
   10480:	180b883a 	mov	r5,r3
   10484:	2005883a 	mov	r2,r4
   10488:	2807883a 	mov	r3,r5
   1048c:	1009883a 	mov	r4,r2
   10490:	180b883a 	mov	r5,r3
   10494:	00144d40 	call	144d4 <__fixdfsi>
   10498:	d0a01315 	stw	r2,-32692(gp)

    Ud_m1 = dc_m1_Kd * (Up_m1 - Up1_m1);  //D Controller
   1049c:	d0202215 	stw	zero,-32632(gp)
    Ud_m2 = dc_m2_Kd * (Up_m2 - Up1_m2);
   104a0:	d0201815 	stw	zero,-32672(gp)

    Up1_m1 =Up_m1;
   104a4:	d0a01f17 	ldw	r2,-32644(gp)
   104a8:	d0a02515 	stw	r2,-32620(gp)
    Up1_m2 =Up_m2;
   104ac:	d0a01a17 	ldw	r2,-32664(gp)
   104b0:	d0a01615 	stw	r2,-32680(gp)

    OutPreSat_m1[0] = OutPreSat_m1[1];
   104b4:	008000b4 	movhi	r2,2
   104b8:	10a13d04 	addi	r2,r2,-31500
   104bc:	10800017 	ldw	r2,0(r2)
   104c0:	d0a00e15 	stw	r2,-32712(gp)
    OutPreSat_m1[1] = Up_m1 + Ui_m1 + Ud_m1;
   104c4:	d0e01f17 	ldw	r3,-32644(gp)
   104c8:	d0a01217 	ldw	r2,-32696(gp)
   104cc:	1887883a 	add	r3,r3,r2
   104d0:	d0a02217 	ldw	r2,-32632(gp)
   104d4:	1887883a 	add	r3,r3,r2
   104d8:	008000b4 	movhi	r2,2
   104dc:	10a13d04 	addi	r2,r2,-31500
   104e0:	10c00015 	stw	r3,0(r2)

    OutPreSat_m2[0] = OutPreSat_m2[1];
   104e4:	008000b4 	movhi	r2,2
   104e8:	10a13f04 	addi	r2,r2,-31492
   104ec:	10800017 	ldw	r2,0(r2)
   104f0:	d0a01015 	stw	r2,-32704(gp)
    OutPreSat_m2[1] = Up_m2 + Ui_m2 + Ud_m2;
   104f4:	d0e01a17 	ldw	r3,-32664(gp)
   104f8:	d0a01317 	ldw	r2,-32692(gp)
   104fc:	1887883a 	add	r3,r3,r2
   10500:	d0a01817 	ldw	r2,-32672(gp)
   10504:	1887883a 	add	r3,r3,r2
   10508:	008000b4 	movhi	r2,2
   1050c:	10a13f04 	addi	r2,r2,-31492
   10510:	10c00015 	stw	r3,0(r2)

    Out_pwm1 = Out_pwm1 - ( OutPreSat_m1[1] - OutPreSat_m1[0]);
   10514:	d1202617 	ldw	r4,-32616(gp)
   10518:	008000b4 	movhi	r2,2
   1051c:	10a13d04 	addi	r2,r2,-31500
   10520:	10c00017 	ldw	r3,0(r2)
   10524:	d0a00e17 	ldw	r2,-32712(gp)
   10528:	1885c83a 	sub	r2,r3,r2
   1052c:	2085c83a 	sub	r2,r4,r2
   10530:	d0a02615 	stw	r2,-32616(gp)
    Out_pwm2 = Out_pwm2 - ( OutPreSat_m2[1] - OutPreSat_m2[0]);
   10534:	d1202317 	ldw	r4,-32628(gp)
   10538:	008000b4 	movhi	r2,2
   1053c:	10a13f04 	addi	r2,r2,-31492
   10540:	10c00017 	ldw	r3,0(r2)
   10544:	d0a01017 	ldw	r2,-32704(gp)
   10548:	1885c83a 	sub	r2,r3,r2
   1054c:	2085c83a 	sub	r2,r4,r2
   10550:	d0a02315 	stw	r2,-32628(gp)

    if (Out_pwm1 > OutMax)
   10554:	d0e02617 	ldw	r3,-32616(gp)
   10558:	00bfffd4 	movui	r2,65535
   1055c:	10c0030e 	bge	r2,r3,1056c <pid_controller_sw+0x218>
         Out_pwm1 =  OutMax;
   10560:	00bfffd4 	movui	r2,65535
   10564:	d0a02615 	stw	r2,-32616(gp)
   10568:	00000406 	br	1057c <pid_controller_sw+0x228>
    else if (Out_pwm1 < OutMin)
   1056c:	d0a02617 	ldw	r2,-32616(gp)
   10570:	1004403a 	cmpge	r2,r2,zero
   10574:	1000011e 	bne	r2,zero,1057c <pid_controller_sw+0x228>
         Out_pwm1 =  OutMin;
   10578:	d0202615 	stw	zero,-32616(gp)

    if (Out_pwm2 > OutMax)
   1057c:	d0e02317 	ldw	r3,-32628(gp)
   10580:	00bfffd4 	movui	r2,65535
   10584:	10c0030e 	bge	r2,r3,10594 <pid_controller_sw+0x240>
         Out_pwm2 =  OutMax;
   10588:	00bfffd4 	movui	r2,65535
   1058c:	d0a02315 	stw	r2,-32628(gp)
   10590:	00000406 	br	105a4 <pid_controller_sw+0x250>
    else if (Out_pwm2 <OutMin)
   10594:	d0a02317 	ldw	r2,-32628(gp)
   10598:	1004403a 	cmpge	r2,r2,zero
   1059c:	1000011e 	bne	r2,zero,105a4 <pid_controller_sw+0x250>
         Out_pwm2 =  OutMin;
   105a0:	d0202315 	stw	zero,-32628(gp)

    IOWR(DC1_PWM1_BASE+0x04,0,Out_pwm1);
   105a4:	d0e02617 	ldw	r3,-32616(gp)
   105a8:	008000b4 	movhi	r2,2
   105ac:	10885104 	addi	r2,r2,8516
   105b0:	10c00035 	stwio	r3,0(r2)
    IOWR(DC2_PWM1_BASE+0x04,0,Out_pwm2);
   105b4:	d0e02317 	ldw	r3,-32628(gp)
   105b8:	008000b4 	movhi	r2,2
   105bc:	10885504 	addi	r2,r2,8532
   105c0:	10c00035 	stwio	r3,0(r2)
}
   105c4:	e037883a 	mov	sp,fp
   105c8:	dfc00317 	ldw	ra,12(sp)
   105cc:	df000217 	ldw	fp,8(sp)
   105d0:	dc400117 	ldw	r17,4(sp)
   105d4:	dc000017 	ldw	r16,0(sp)
   105d8:	dec00404 	addi	sp,sp,16
   105dc:	f800283a 	ret

000105e0 <isr_dc_m2>:
//-------------------------- ISRs for the motors -----------------------------------------//
void isr_dc_m2(void *context, alt_u32 id)
{
   105e0:	defffd04 	addi	sp,sp,-12
   105e4:	df000215 	stw	fp,8(sp)
   105e8:	df000204 	addi	fp,sp,8
   105ec:	e13ffe15 	stw	r4,-8(fp)
   105f0:	e17fff15 	stw	r5,-4(fp)
  IOWR(DC2_PWM2_BASE+0x08,0,0);
   105f4:	008000b4 	movhi	r2,2
   105f8:	10884e04 	addi	r2,r2,8504
   105fc:	10000035 	stwio	zero,0(r2)
  IOWR(DC2_PWM1_BASE+0x08,0,0);
   10600:	008000b4 	movhi	r2,2
   10604:	10885604 	addi	r2,r2,8536
   10608:	10000035 	stwio	zero,0(r2)
  IOWR(IR_RX2_BASE,0,0x0);
   1060c:	008000b4 	movhi	r2,2
   10610:	10885c04 	addi	r2,r2,8560
   10614:	10000035 	stwio	zero,0(r2)
  dc2_cmp = 0;
   10618:	d0201c15 	stw	zero,-32656(gp)
 }
   1061c:	e037883a 	mov	sp,fp
   10620:	df000017 	ldw	fp,0(sp)
   10624:	dec00104 	addi	sp,sp,4
   10628:	f800283a 	ret

0001062c <isr_dc_m1>:
void isr_dc_m1(void *context, alt_u32 id)
{
   1062c:	defffd04 	addi	sp,sp,-12
   10630:	df000215 	stw	fp,8(sp)
   10634:	df000204 	addi	fp,sp,8
   10638:	e13ffe15 	stw	r4,-8(fp)
   1063c:	e17fff15 	stw	r5,-4(fp)
  IOWR(DC1_PWM2_BASE+0x08,0,0);
   10640:	008000b4 	movhi	r2,2
   10644:	10884a04 	addi	r2,r2,8488
   10648:	10000035 	stwio	zero,0(r2)
  IOWR(DC1_PWM1_BASE+0x08,0,0);
   1064c:	008000b4 	movhi	r2,2
   10650:	10885204 	addi	r2,r2,8520
   10654:	10000035 	stwio	zero,0(r2)
  IOWR(IR_RX1_BASE,0,0x0);
   10658:	008000b4 	movhi	r2,2
   1065c:	10885a04 	addi	r2,r2,8552
   10660:	10000035 	stwio	zero,0(r2)
  dc1_cmp = 0;
   10664:	d0202415 	stw	zero,-32624(gp)
}
   10668:	e037883a 	mov	sp,fp
   1066c:	df000017 	ldw	fp,0(sp)
   10670:	dec00104 	addi	sp,sp,4
   10674:	f800283a 	ret

00010678 <turn_left>:
//------------------------ Direction (left,right,forward,backward) Functions ---------------------------//
int turn_left()
{
   10678:	defffb04 	addi	sp,sp,-20
   1067c:	dfc00415 	stw	ra,16(sp)
   10680:	df000315 	stw	fp,12(sp)
   10684:	df000304 	addi	fp,sp,12
    int dc_m1_pwm_duty = dc_m1_pwm_freq/4;
   10688:	d0a00017 	ldw	r2,-32768(gp)
   1068c:	1004d0ba 	srli	r2,r2,2
   10690:	e0bffe15 	stw	r2,-8(fp)
    int dc_m2_pwm_duty = dc_m2_pwm_freq/4;
   10694:	d0a00117 	ldw	r2,-32764(gp)
   10698:	1004d0ba 	srli	r2,r2,2
   1069c:	e0bffd15 	stw	r2,-12(fp)

    dc1_cmp = 1;
   106a0:	00800044 	movi	r2,1
   106a4:	d0a02415 	stw	r2,-32624(gp)
    dc2_cmp = 1;
   106a8:	00800044 	movi	r2,1
   106ac:	d0a01c15 	stw	r2,-32656(gp)

    IOWR(IR_RX2_BASE,0x00,0);
   106b0:	008000b4 	movhi	r2,2
   106b4:	10885c04 	addi	r2,r2,8560
   106b8:	10000035 	stwio	zero,0(r2)
    IOWR(IR_RX1_BASE,0x00,0);
   106bc:	008000b4 	movhi	r2,2
   106c0:	10885a04 	addi	r2,r2,8552
   106c4:	10000035 	stwio	zero,0(r2)
    IOWR(DC2_PWM2_BASE+0x08,0,0);
   106c8:	008000b4 	movhi	r2,2
   106cc:	10884e04 	addi	r2,r2,8504
   106d0:	10000035 	stwio	zero,0(r2)
    IOWR(DC1_PWM1_BASE+0x08,0,0);
   106d4:	008000b4 	movhi	r2,2
   106d8:	10885204 	addi	r2,r2,8520
   106dc:	10000035 	stwio	zero,0(r2)

    IOWR(DC2_PWM1_BASE,0,dc_m2_pwm_freq);
   106e0:	d0a00117 	ldw	r2,-32764(gp)
   106e4:	1007883a 	mov	r3,r2
   106e8:	008000b4 	movhi	r2,2
   106ec:	10885404 	addi	r2,r2,8528
   106f0:	10c00035 	stwio	r3,0(r2)
    IOWR(DC2_PWM1_BASE+0x04,0,dc_m2_pwm_duty);
   106f4:	00c000b4 	movhi	r3,2
   106f8:	18c85504 	addi	r3,r3,8532
   106fc:	e0bffd17 	ldw	r2,-12(fp)
   10700:	18800035 	stwio	r2,0(r3)
    IOWR(DC1_PWM2_BASE,0,dc_m1_pwm_freq);
   10704:	d0a00017 	ldw	r2,-32768(gp)
   10708:	1007883a 	mov	r3,r2
   1070c:	008000b4 	movhi	r2,2
   10710:	10884804 	addi	r2,r2,8480
   10714:	10c00035 	stwio	r3,0(r2)
    IOWR(DC1_PWM2_BASE+0x04,0,dc_m1_pwm_duty);
   10718:	00c000b4 	movhi	r3,2
   1071c:	18c84904 	addi	r3,r3,8484
   10720:	e0bffe17 	ldw	r2,-8(fp)
   10724:	18800035 	stwio	r2,0(r3)

    IOWR(IR_RX2_BASE,1,722);
   10728:	00c000b4 	movhi	r3,2
   1072c:	18c85d04 	addi	r3,r3,8564
   10730:	0080b484 	movi	r2,722
   10734:	18800035 	stwio	r2,0(r3)
    IOWR(IR_RX1_BASE,1,722);
   10738:	00c000b4 	movhi	r3,2
   1073c:	18c85b04 	addi	r3,r3,8556
   10740:	0080b484 	movi	r2,722
   10744:	18800035 	stwio	r2,0(r3)
    IOWR(IR_RX2_BASE,0x00,1);
   10748:	00c000b4 	movhi	r3,2
   1074c:	18c85c04 	addi	r3,r3,8560
   10750:	00800044 	movi	r2,1
   10754:	18800035 	stwio	r2,0(r3)
    IOWR(IR_RX1_BASE,0x00,1);
   10758:	00c000b4 	movhi	r3,2
   1075c:	18c85a04 	addi	r3,r3,8552
   10760:	00800044 	movi	r2,1
   10764:	18800035 	stwio	r2,0(r3)

    IOWR(DC1_PWM2_BASE+0x08,0,1);
   10768:	00c000b4 	movhi	r3,2
   1076c:	18c84a04 	addi	r3,r3,8488
   10770:	00800044 	movi	r2,1
   10774:	18800035 	stwio	r2,0(r3)
    IOWR(DC2_PWM1_BASE+0x08,0,1);
   10778:	00c000b4 	movhi	r3,2
   1077c:	18c85604 	addi	r3,r3,8536
   10780:	00800044 	movi	r2,1
   10784:	18800035 	stwio	r2,0(r3)
   10788:	00000006 	br	1078c <turn_left+0x114>

    while(1)
    {
        if(( dc1_cmp ==0 ) && (dc2_cmp ==0 ))
   1078c:	d0a02417 	ldw	r2,-32624(gp)
   10790:	1004c03a 	cmpne	r2,r2,zero
   10794:	1000061e 	bne	r2,zero,107b0 <turn_left+0x138>
   10798:	d0a01c17 	ldw	r2,-32656(gp)
   1079c:	1004c03a 	cmpne	r2,r2,zero
   107a0:	1000031e 	bne	r2,zero,107b0 <turn_left+0x138>
          return 0;
   107a4:	0005883a 	mov	r2,zero
   107a8:	e0bfff15 	stw	r2,-4(fp)
   107ac:	00004006 	br	108b0 <turn_left+0x238>
        else
        {
        usleep(90000);
   107b0:	01000074 	movhi	r4,1
   107b4:	2117e404 	addi	r4,r4,24464
   107b8:	00160e00 	call	160e0 <usleep>
        dc_m1 = IORD(IR_RX1_BASE,1);
   107bc:	008000b4 	movhi	r2,2
   107c0:	10885b04 	addi	r2,r2,8556
   107c4:	10800037 	ldwio	r2,0(r2)
   107c8:	d0a01e15 	stw	r2,-32648(gp)
        dc_m2 = IORD(IR_RX2_BASE,1);
   107cc:	008000b4 	movhi	r2,2
   107d0:	10885d04 	addi	r2,r2,8564
   107d4:	10800037 	ldwio	r2,0(r2)
   107d8:	d0a02715 	stw	r2,-32612(gp)
        i = dc_m1-dc_m2;
   107dc:	d0e01e17 	ldw	r3,-32648(gp)
   107e0:	d0a02717 	ldw	r2,-32612(gp)
   107e4:	1885c83a 	sub	r2,r3,r2
   107e8:	d0a01915 	stw	r2,-32668(gp)
        j = dc_m2-dc_m1;
   107ec:	d0e02717 	ldw	r3,-32612(gp)
   107f0:	d0a01e17 	ldw	r2,-32648(gp)
   107f4:	1885c83a 	sub	r2,r3,r2
   107f8:	d0a01415 	stw	r2,-32688(gp)
        if(i > 5) {
   107fc:	d0a01917 	ldw	r2,-32668(gp)
   10800:	10800190 	cmplti	r2,r2,6
   10804:	1000151e 	bne	r2,zero,1085c <turn_left+0x1e4>
            if(dc_m2_pwm_duty >= 100)
   10808:	e0bffd17 	ldw	r2,-12(fp)
   1080c:	10801910 	cmplti	r2,r2,100
   10810:	1000031e 	bne	r2,zero,10820 <turn_left+0x1a8>
                dc_m2_pwm_duty-=50;
   10814:	e0bffd17 	ldw	r2,-12(fp)
   10818:	10bff384 	addi	r2,r2,-50
   1081c:	e0bffd15 	stw	r2,-12(fp)
            if(dc_m1_pwm_duty < 1700)
   10820:	e0bffe17 	ldw	r2,-8(fp)
   10824:	1081a908 	cmpgei	r2,r2,1700
   10828:	1000031e 	bne	r2,zero,10838 <turn_left+0x1c0>
                dc_m1_pwm_duty+=50;
   1082c:	e0bffe17 	ldw	r2,-8(fp)
   10830:	10800c84 	addi	r2,r2,50
   10834:	e0bffe15 	stw	r2,-8(fp)
            IOWR(DC2_PWM1_BASE+0x04,0,dc_m2_pwm_duty);
   10838:	00c000b4 	movhi	r3,2
   1083c:	18c85504 	addi	r3,r3,8532
   10840:	e0bffd17 	ldw	r2,-12(fp)
   10844:	18800035 	stwio	r2,0(r3)
            IOWR(DC1_PWM2_BASE+0x04,0,dc_m1_pwm_duty);
   10848:	00c000b4 	movhi	r3,2
   1084c:	18c84904 	addi	r3,r3,8484
   10850:	e0bffe17 	ldw	r2,-8(fp)
   10854:	18800035 	stwio	r2,0(r3)
   10858:	003fcc06 	br	1078c <turn_left+0x114>
        }
        else
        if(j > 5) {
   1085c:	d0a01417 	ldw	r2,-32688(gp)
   10860:	10800190 	cmplti	r2,r2,6
   10864:	103fc91e 	bne	r2,zero,1078c <turn_left+0x114>
            if(dc_m1_pwm_duty >= 100);
            dc_m1_pwm_duty-=50;
   10868:	e0bffe17 	ldw	r2,-8(fp)
   1086c:	10bff384 	addi	r2,r2,-50
   10870:	e0bffe15 	stw	r2,-8(fp)
            if(dc_m2_pwm_duty < 1700)
   10874:	e0bffd17 	ldw	r2,-12(fp)
   10878:	1081a908 	cmpgei	r2,r2,1700
   1087c:	1000031e 	bne	r2,zero,1088c <turn_left+0x214>
            dc_m2_pwm_duty+=50;
   10880:	e0bffd17 	ldw	r2,-12(fp)
   10884:	10800c84 	addi	r2,r2,50
   10888:	e0bffd15 	stw	r2,-12(fp)
            IOWR(DC2_PWM1_BASE+0x04,0,dc_m2_pwm_duty);
   1088c:	00c000b4 	movhi	r3,2
   10890:	18c85504 	addi	r3,r3,8532
   10894:	e0bffd17 	ldw	r2,-12(fp)
   10898:	18800035 	stwio	r2,0(r3)
            IOWR(DC1_PWM2_BASE+0x04,0,dc_m1_pwm_duty);
   1089c:	00c000b4 	movhi	r3,2
   108a0:	18c84904 	addi	r3,r3,8484
   108a4:	e0bffe17 	ldw	r2,-8(fp)
   108a8:	18800035 	stwio	r2,0(r3)
        }
      }
    }
   108ac:	003fb706 	br	1078c <turn_left+0x114>
}
   108b0:	e0bfff17 	ldw	r2,-4(fp)
   108b4:	e037883a 	mov	sp,fp
   108b8:	dfc00117 	ldw	ra,4(sp)
   108bc:	df000017 	ldw	fp,0(sp)
   108c0:	dec00204 	addi	sp,sp,8
   108c4:	f800283a 	ret

000108c8 <turn_right>:

int turn_right()
{
   108c8:	defffb04 	addi	sp,sp,-20
   108cc:	dfc00415 	stw	ra,16(sp)
   108d0:	df000315 	stw	fp,12(sp)
   108d4:	df000304 	addi	fp,sp,12
    int dc_m1_pwm_duty = dc_m1_pwm_freq/4;
   108d8:	d0a00017 	ldw	r2,-32768(gp)
   108dc:	1004d0ba 	srli	r2,r2,2
   108e0:	e0bffe15 	stw	r2,-8(fp)
    int dc_m2_pwm_duty = dc_m2_pwm_freq/4;
   108e4:	d0a00117 	ldw	r2,-32764(gp)
   108e8:	1004d0ba 	srli	r2,r2,2
   108ec:	e0bffd15 	stw	r2,-12(fp)

    dc1_cmp = 1;
   108f0:	00800044 	movi	r2,1
   108f4:	d0a02415 	stw	r2,-32624(gp)
    dc2_cmp = 1;
   108f8:	00800044 	movi	r2,1
   108fc:	d0a01c15 	stw	r2,-32656(gp)
    IOWR(IR_RX2_BASE,0x00,0);
   10900:	008000b4 	movhi	r2,2
   10904:	10885c04 	addi	r2,r2,8560
   10908:	10000035 	stwio	zero,0(r2)
    IOWR(IR_RX1_BASE,0x00,0);
   1090c:	008000b4 	movhi	r2,2
   10910:	10885a04 	addi	r2,r2,8552
   10914:	10000035 	stwio	zero,0(r2)
    IOWR(DC2_PWM1_BASE+0x08,0,0);
   10918:	008000b4 	movhi	r2,2
   1091c:	10885604 	addi	r2,r2,8536
   10920:	10000035 	stwio	zero,0(r2)
    IOWR(DC1_PWM2_BASE+0x08,0,0);
   10924:	008000b4 	movhi	r2,2
   10928:	10884a04 	addi	r2,r2,8488
   1092c:	10000035 	stwio	zero,0(r2)

    IOWR(DC2_PWM2_BASE,0,dc_m2_pwm_freq);
   10930:	d0a00117 	ldw	r2,-32764(gp)
   10934:	1007883a 	mov	r3,r2
   10938:	008000b4 	movhi	r2,2
   1093c:	10884c04 	addi	r2,r2,8496
   10940:	10c00035 	stwio	r3,0(r2)
    IOWR(DC2_PWM2_BASE+0x04,0,dc_m2_pwm_duty);
   10944:	00c000b4 	movhi	r3,2
   10948:	18c84d04 	addi	r3,r3,8500
   1094c:	e0bffd17 	ldw	r2,-12(fp)
   10950:	18800035 	stwio	r2,0(r3)
    IOWR(DC1_PWM1_BASE,0,dc_m1_pwm_freq);
   10954:	d0a00017 	ldw	r2,-32768(gp)
   10958:	1007883a 	mov	r3,r2
   1095c:	008000b4 	movhi	r2,2
   10960:	10885004 	addi	r2,r2,8512
   10964:	10c00035 	stwio	r3,0(r2)
    IOWR(DC1_PWM1_BASE+0x04,0,dc_m1_pwm_duty);
   10968:	00c000b4 	movhi	r3,2
   1096c:	18c85104 	addi	r3,r3,8516
   10970:	e0bffe17 	ldw	r2,-8(fp)
   10974:	18800035 	stwio	r2,0(r3)

    IOWR(IR_RX2_BASE,1,722);
   10978:	00c000b4 	movhi	r3,2
   1097c:	18c85d04 	addi	r3,r3,8564
   10980:	0080b484 	movi	r2,722
   10984:	18800035 	stwio	r2,0(r3)
    IOWR(IR_RX1_BASE,1,722);
   10988:	00c000b4 	movhi	r3,2
   1098c:	18c85b04 	addi	r3,r3,8556
   10990:	0080b484 	movi	r2,722
   10994:	18800035 	stwio	r2,0(r3)
    IOWR(IR_RX2_BASE,0x00,1);
   10998:	00c000b4 	movhi	r3,2
   1099c:	18c85c04 	addi	r3,r3,8560
   109a0:	00800044 	movi	r2,1
   109a4:	18800035 	stwio	r2,0(r3)
    IOWR(IR_RX1_BASE,0x00,1);
   109a8:	00c000b4 	movhi	r3,2
   109ac:	18c85a04 	addi	r3,r3,8552
   109b0:	00800044 	movi	r2,1
   109b4:	18800035 	stwio	r2,0(r3)

    IOWR(DC1_PWM1_BASE+0x08,0,1);
   109b8:	00c000b4 	movhi	r3,2
   109bc:	18c85204 	addi	r3,r3,8520
   109c0:	00800044 	movi	r2,1
   109c4:	18800035 	stwio	r2,0(r3)
    IOWR(DC2_PWM2_BASE+0x08,0,1);
   109c8:	00c000b4 	movhi	r3,2
   109cc:	18c84e04 	addi	r3,r3,8504
   109d0:	00800044 	movi	r2,1
   109d4:	18800035 	stwio	r2,0(r3)
   109d8:	00000006 	br	109dc <turn_right+0x114>

    while(1)
    {
        if(( dc1_cmp ==0 ) && (dc2_cmp ==0 ))
   109dc:	d0a02417 	ldw	r2,-32624(gp)
   109e0:	1004c03a 	cmpne	r2,r2,zero
   109e4:	1000061e 	bne	r2,zero,10a00 <turn_right+0x138>
   109e8:	d0a01c17 	ldw	r2,-32656(gp)
   109ec:	1004c03a 	cmpne	r2,r2,zero
   109f0:	1000031e 	bne	r2,zero,10a00 <turn_right+0x138>
        return 0;
   109f4:	0005883a 	mov	r2,zero
   109f8:	e0bfff15 	stw	r2,-4(fp)
   109fc:	00004006 	br	10b00 <turn_right+0x238>
        else
        {
        usleep(90000);
   10a00:	01000074 	movhi	r4,1
   10a04:	2117e404 	addi	r4,r4,24464
   10a08:	00160e00 	call	160e0 <usleep>
        dc_m1 = IORD(IR_RX1_BASE,1);
   10a0c:	008000b4 	movhi	r2,2
   10a10:	10885b04 	addi	r2,r2,8556
   10a14:	10800037 	ldwio	r2,0(r2)
   10a18:	d0a01e15 	stw	r2,-32648(gp)
        dc_m2 = IORD(IR_RX2_BASE,1);
   10a1c:	008000b4 	movhi	r2,2
   10a20:	10885d04 	addi	r2,r2,8564
   10a24:	10800037 	ldwio	r2,0(r2)
   10a28:	d0a02715 	stw	r2,-32612(gp)
        i = dc_m1-dc_m2;
   10a2c:	d0e01e17 	ldw	r3,-32648(gp)
   10a30:	d0a02717 	ldw	r2,-32612(gp)
   10a34:	1885c83a 	sub	r2,r3,r2
   10a38:	d0a01915 	stw	r2,-32668(gp)
        j = dc_m2-dc_m1;
   10a3c:	d0e02717 	ldw	r3,-32612(gp)
   10a40:	d0a01e17 	ldw	r2,-32648(gp)
   10a44:	1885c83a 	sub	r2,r3,r2
   10a48:	d0a01415 	stw	r2,-32688(gp)
        if(i > 5) {
   10a4c:	d0a01917 	ldw	r2,-32668(gp)
   10a50:	10800190 	cmplti	r2,r2,6
   10a54:	1000151e 	bne	r2,zero,10aac <turn_right+0x1e4>
            if(dc_m2_pwm_duty >= 100)
   10a58:	e0bffd17 	ldw	r2,-12(fp)
   10a5c:	10801910 	cmplti	r2,r2,100
   10a60:	1000031e 	bne	r2,zero,10a70 <turn_right+0x1a8>
                dc_m2_pwm_duty-=50;
   10a64:	e0bffd17 	ldw	r2,-12(fp)
   10a68:	10bff384 	addi	r2,r2,-50
   10a6c:	e0bffd15 	stw	r2,-12(fp)
            if(dc_m1_pwm_duty < 1700)
   10a70:	e0bffe17 	ldw	r2,-8(fp)
   10a74:	1081a908 	cmpgei	r2,r2,1700
   10a78:	1000031e 	bne	r2,zero,10a88 <turn_right+0x1c0>
                dc_m1_pwm_duty+=50;
   10a7c:	e0bffe17 	ldw	r2,-8(fp)
   10a80:	10800c84 	addi	r2,r2,50
   10a84:	e0bffe15 	stw	r2,-8(fp)
            IOWR(DC2_PWM2_BASE+0x04,0,dc_m2_pwm_duty);
   10a88:	00c000b4 	movhi	r3,2
   10a8c:	18c84d04 	addi	r3,r3,8500
   10a90:	e0bffd17 	ldw	r2,-12(fp)
   10a94:	18800035 	stwio	r2,0(r3)
            IOWR(DC1_PWM1_BASE+0x04,0,dc_m1_pwm_duty);
   10a98:	00c000b4 	movhi	r3,2
   10a9c:	18c85104 	addi	r3,r3,8516
   10aa0:	e0bffe17 	ldw	r2,-8(fp)
   10aa4:	18800035 	stwio	r2,0(r3)
   10aa8:	003fcc06 	br	109dc <turn_right+0x114>
        }
        else
        if(j > 5) {
   10aac:	d0a01417 	ldw	r2,-32688(gp)
   10ab0:	10800190 	cmplti	r2,r2,6
   10ab4:	103fc91e 	bne	r2,zero,109dc <turn_right+0x114>
            if(dc_m1_pwm_duty >= 100);
                dc_m1_pwm_duty-=50;
   10ab8:	e0bffe17 	ldw	r2,-8(fp)
   10abc:	10bff384 	addi	r2,r2,-50
   10ac0:	e0bffe15 	stw	r2,-8(fp)
            if(dc_m2_pwm_duty < 1700)
   10ac4:	e0bffd17 	ldw	r2,-12(fp)
   10ac8:	1081a908 	cmpgei	r2,r2,1700
   10acc:	1000031e 	bne	r2,zero,10adc <turn_right+0x214>
                dc_m2_pwm_duty+=50;
   10ad0:	e0bffd17 	ldw	r2,-12(fp)
   10ad4:	10800c84 	addi	r2,r2,50
   10ad8:	e0bffd15 	stw	r2,-12(fp)
            IOWR(DC2_PWM2_BASE+0x04,0,dc_m2_pwm_duty);
   10adc:	00c000b4 	movhi	r3,2
   10ae0:	18c84d04 	addi	r3,r3,8500
   10ae4:	e0bffd17 	ldw	r2,-12(fp)
   10ae8:	18800035 	stwio	r2,0(r3)
            IOWR(DC1_PWM1_BASE+0x04,0,dc_m1_pwm_duty);
   10aec:	00c000b4 	movhi	r3,2
   10af0:	18c85104 	addi	r3,r3,8516
   10af4:	e0bffe17 	ldw	r2,-8(fp)
   10af8:	18800035 	stwio	r2,0(r3)
        }
      }
    }
   10afc:	003fb706 	br	109dc <turn_right+0x114>
}
   10b00:	e0bfff17 	ldw	r2,-4(fp)
   10b04:	e037883a 	mov	sp,fp
   10b08:	dfc00117 	ldw	ra,4(sp)
   10b0c:	df000017 	ldw	fp,0(sp)
   10b10:	dec00204 	addi	sp,sp,8
   10b14:	f800283a 	ret

00010b18 <move_fwd>:

void move_fwd()
{
   10b18:	defffc04 	addi	sp,sp,-16
   10b1c:	dfc00315 	stw	ra,12(sp)
   10b20:	df000215 	stw	fp,8(sp)
   10b24:	df000204 	addi	fp,sp,8
    int dc_m1_pwm_duty = dc_m1_pwm_freq/8;
   10b28:	d0a00017 	ldw	r2,-32768(gp)
   10b2c:	1004d0fa 	srli	r2,r2,3
   10b30:	e0bfff15 	stw	r2,-4(fp)
    int dc_m2_pwm_duty = dc_m2_pwm_freq/8;
   10b34:	d0a00117 	ldw	r2,-32764(gp)
   10b38:	1004d0fa 	srli	r2,r2,3
   10b3c:	e0bffe15 	stw	r2,-8(fp)

    dc1_cmp = 1;
   10b40:	00800044 	movi	r2,1
   10b44:	d0a02415 	stw	r2,-32624(gp)
    dc2_cmp = 1;
   10b48:	00800044 	movi	r2,1
   10b4c:	d0a01c15 	stw	r2,-32656(gp)
    IOWR(IR_RX2_BASE,0x00,0);
   10b50:	008000b4 	movhi	r2,2
   10b54:	10885c04 	addi	r2,r2,8560
   10b58:	10000035 	stwio	zero,0(r2)
    IOWR(IR_RX1_BASE,0x00,0);
   10b5c:	008000b4 	movhi	r2,2
   10b60:	10885a04 	addi	r2,r2,8552
   10b64:	10000035 	stwio	zero,0(r2)
    IOWR(DC2_PWM2_BASE+0x08,0,0);
   10b68:	008000b4 	movhi	r2,2
   10b6c:	10884e04 	addi	r2,r2,8504
   10b70:	10000035 	stwio	zero,0(r2)
    IOWR(DC1_PWM2_BASE+0x08,0,0);
   10b74:	008000b4 	movhi	r2,2
   10b78:	10884a04 	addi	r2,r2,8488
   10b7c:	10000035 	stwio	zero,0(r2)

    IOWR(DC2_PWM1_BASE,0,dc_m2_pwm_freq);
   10b80:	d0a00117 	ldw	r2,-32764(gp)
   10b84:	1007883a 	mov	r3,r2
   10b88:	008000b4 	movhi	r2,2
   10b8c:	10885404 	addi	r2,r2,8528
   10b90:	10c00035 	stwio	r3,0(r2)
    IOWR(DC2_PWM1_BASE+0x04,0,dc_m2_pwm_duty);
   10b94:	00c000b4 	movhi	r3,2
   10b98:	18c85504 	addi	r3,r3,8532
   10b9c:	e0bffe17 	ldw	r2,-8(fp)
   10ba0:	18800035 	stwio	r2,0(r3)
    IOWR(DC1_PWM1_BASE,0,dc_m1_pwm_freq);
   10ba4:	d0a00017 	ldw	r2,-32768(gp)
   10ba8:	1007883a 	mov	r3,r2
   10bac:	008000b4 	movhi	r2,2
   10bb0:	10885004 	addi	r2,r2,8512
   10bb4:	10c00035 	stwio	r3,0(r2)
    IOWR(DC1_PWM1_BASE+0x04,0,dc_m1_pwm_duty);
   10bb8:	00c000b4 	movhi	r3,2
   10bbc:	18c85104 	addi	r3,r3,8516
   10bc0:	e0bfff17 	ldw	r2,-4(fp)
   10bc4:	18800035 	stwio	r2,0(r3)

    IOWR(IR_RX2_BASE,1,2500);
   10bc8:	00c000b4 	movhi	r3,2
   10bcc:	18c85d04 	addi	r3,r3,8564
   10bd0:	00827104 	movi	r2,2500
   10bd4:	18800035 	stwio	r2,0(r3)
    IOWR(IR_RX1_BASE,1,2500);
   10bd8:	00c000b4 	movhi	r3,2
   10bdc:	18c85b04 	addi	r3,r3,8556
   10be0:	00827104 	movi	r2,2500
   10be4:	18800035 	stwio	r2,0(r3)
    IOWR(IR_RX2_BASE,0x00,1);
   10be8:	00c000b4 	movhi	r3,2
   10bec:	18c85c04 	addi	r3,r3,8560
   10bf0:	00800044 	movi	r2,1
   10bf4:	18800035 	stwio	r2,0(r3)
    IOWR(IR_RX1_BASE,0x00,1);
   10bf8:	00c000b4 	movhi	r3,2
   10bfc:	18c85a04 	addi	r3,r3,8552
   10c00:	00800044 	movi	r2,1
   10c04:	18800035 	stwio	r2,0(r3)

    IOWR(DC1_PWM1_BASE+0x08,0,1);
   10c08:	00c000b4 	movhi	r3,2
   10c0c:	18c85204 	addi	r3,r3,8520
   10c10:	00800044 	movi	r2,1
   10c14:	18800035 	stwio	r2,0(r3)
    IOWR(DC2_PWM1_BASE+0x08,0,1);
   10c18:	00c000b4 	movhi	r3,2
   10c1c:	18c85604 	addi	r3,r3,8536
   10c20:	00800044 	movi	r2,1
   10c24:	18800035 	stwio	r2,0(r3)

    while(1)
    {
        edge = IORD(PS_DIN_BASE,0);
   10c28:	008000b4 	movhi	r2,2
   10c2c:	10883804 	addi	r2,r2,8416
   10c30:	10800037 	ldwio	r2,0(r2)
   10c34:	d0a02115 	stw	r2,-32636(gp)
        if((( dc1_cmp ==0 ) && (dc2_cmp ==0 )) || ((table_edge==1) && (edge == 1)) || ((wall_detect==1) && (edge == 0)) )
   10c38:	d0a02417 	ldw	r2,-32624(gp)
   10c3c:	1004c03a 	cmpne	r2,r2,zero
   10c40:	1000031e 	bne	r2,zero,10c50 <move_fwd+0x138>
   10c44:	d0a01c17 	ldw	r2,-32656(gp)
   10c48:	1005003a 	cmpeq	r2,r2,zero
   10c4c:	10000e1e 	bne	r2,zero,10c88 <move_fwd+0x170>
   10c50:	d0a02803 	ldbu	r2,-32608(gp)
   10c54:	10803fcc 	andi	r2,r2,255
   10c58:	10800058 	cmpnei	r2,r2,1
   10c5c:	1000031e 	bne	r2,zero,10c6c <move_fwd+0x154>
   10c60:	d0a02117 	ldw	r2,-32636(gp)
   10c64:	10800060 	cmpeqi	r2,r2,1
   10c68:	1000071e 	bne	r2,zero,10c88 <move_fwd+0x170>
   10c6c:	d0a01b03 	ldbu	r2,-32660(gp)
   10c70:	10803fcc 	andi	r2,r2,255
   10c74:	10800058 	cmpnei	r2,r2,1
   10c78:	1000121e 	bne	r2,zero,10cc4 <move_fwd+0x1ac>
   10c7c:	d0a02117 	ldw	r2,-32636(gp)
   10c80:	1004c03a 	cmpne	r2,r2,zero
   10c84:	10000f1e 	bne	r2,zero,10cc4 <move_fwd+0x1ac>
        {
            IOWR(DC1_PWM1_BASE+0x08,0,0);
   10c88:	008000b4 	movhi	r2,2
   10c8c:	10885204 	addi	r2,r2,8520
   10c90:	10000035 	stwio	zero,0(r2)
            IOWR(DC2_PWM1_BASE+0x08,0,0);
   10c94:	008000b4 	movhi	r2,2
   10c98:	10885604 	addi	r2,r2,8536
   10c9c:	10000035 	stwio	zero,0(r2)
            IOWR(IR_RX1_BASE,0,0x0);
   10ca0:	008000b4 	movhi	r2,2
   10ca4:	10885a04 	addi	r2,r2,8552
   10ca8:	10000035 	stwio	zero,0(r2)
            IOWR(IR_RX2_BASE,0,0x0);
   10cac:	008000b4 	movhi	r2,2
   10cb0:	10885c04 	addi	r2,r2,8560
   10cb4:	10000035 	stwio	zero,0(r2)
            dc1_cmp =0;
   10cb8:	d0202415 	stw	zero,-32624(gp)
            dc1_cmp =0;
   10cbc:	d0202415 	stw	zero,-32624(gp)
   10cc0:	00001b06 	br	10d30 <move_fwd+0x218>
            return;
        }
        else
        {
        usleep(100000);
   10cc4:	010000b4 	movhi	r4,2
   10cc8:	2121a804 	addi	r4,r4,-31072
   10ccc:	00160e00 	call	160e0 <usleep>
        dc_m1 = IORD(IR_RX1_BASE,1);
   10cd0:	008000b4 	movhi	r2,2
   10cd4:	10885b04 	addi	r2,r2,8556
   10cd8:	10800037 	ldwio	r2,0(r2)
   10cdc:	d0a01e15 	stw	r2,-32648(gp)
        dc_m2 = IORD(IR_RX2_BASE,1);
   10ce0:	008000b4 	movhi	r2,2
   10ce4:	10885d04 	addi	r2,r2,8564
   10ce8:	10800037 	ldwio	r2,0(r2)
   10cec:	d0a02715 	stw	r2,-32612(gp)
        IOWR(IR_RX1_BASE,0,0);
   10cf0:	008000b4 	movhi	r2,2
   10cf4:	10885a04 	addi	r2,r2,8552
   10cf8:	10000035 	stwio	zero,0(r2)
        IOWR(IR_RX2_BASE,0,0);
   10cfc:	008000b4 	movhi	r2,2
   10d00:	10885c04 	addi	r2,r2,8560
   10d04:	10000035 	stwio	zero,0(r2)
        IOWR(IR_RX1_BASE,0,1);
   10d08:	00c000b4 	movhi	r3,2
   10d0c:	18c85a04 	addi	r3,r3,8552
   10d10:	00800044 	movi	r2,1
   10d14:	18800035 	stwio	r2,0(r3)
        IOWR(IR_RX2_BASE,0,1);
   10d18:	00c000b4 	movhi	r3,2
   10d1c:	18c85c04 	addi	r3,r3,8560
   10d20:	00800044 	movi	r2,1
   10d24:	18800035 	stwio	r2,0(r3)
        PID_MODE_SEL ? pid_controller_hw() : pid_controller_sw();   //  HW/SW mode selects based on "PID_MODE_SEL" value.
   10d28:	00103540 	call	10354 <pid_controller_sw>
        }
    }
   10d2c:	003fbe06 	br	10c28 <move_fwd+0x110>
}
   10d30:	e037883a 	mov	sp,fp
   10d34:	dfc00117 	ldw	ra,4(sp)
   10d38:	df000017 	ldw	fp,0(sp)
   10d3c:	dec00204 	addi	sp,sp,8
   10d40:	f800283a 	ret

00010d44 <move_bwd>:

void move_bwd()
{
   10d44:	defffc04 	addi	sp,sp,-16
   10d48:	dfc00315 	stw	ra,12(sp)
   10d4c:	df000215 	stw	fp,8(sp)
   10d50:	df000204 	addi	fp,sp,8
    int dc_m1_pwm_duty = dc_m1_pwm_freq/4;
   10d54:	d0a00017 	ldw	r2,-32768(gp)
   10d58:	1004d0ba 	srli	r2,r2,2
   10d5c:	e0bfff15 	stw	r2,-4(fp)
    int dc_m2_pwm_duty = dc_m2_pwm_freq/4;
   10d60:	d0a00117 	ldw	r2,-32764(gp)
   10d64:	1004d0ba 	srli	r2,r2,2
   10d68:	e0bffe15 	stw	r2,-8(fp)

    dc1_cmp = 1;
   10d6c:	00800044 	movi	r2,1
   10d70:	d0a02415 	stw	r2,-32624(gp)
    dc2_cmp = 1;
   10d74:	00800044 	movi	r2,1
   10d78:	d0a01c15 	stw	r2,-32656(gp)
    IOWR(IR_RX2_BASE,0x00,0);
   10d7c:	008000b4 	movhi	r2,2
   10d80:	10885c04 	addi	r2,r2,8560
   10d84:	10000035 	stwio	zero,0(r2)
    IOWR(IR_RX1_BASE,0x00,0);
   10d88:	008000b4 	movhi	r2,2
   10d8c:	10885a04 	addi	r2,r2,8552
   10d90:	10000035 	stwio	zero,0(r2)
    IOWR(DC2_PWM1_BASE+0x08,0,0);
   10d94:	008000b4 	movhi	r2,2
   10d98:	10885604 	addi	r2,r2,8536
   10d9c:	10000035 	stwio	zero,0(r2)
    IOWR(DC1_PWM1_BASE+0x08,0,0);
   10da0:	008000b4 	movhi	r2,2
   10da4:	10885204 	addi	r2,r2,8520
   10da8:	10000035 	stwio	zero,0(r2)

    IOWR(DC2_PWM2_BASE,0,dc_m2_pwm_freq);
   10dac:	d0a00117 	ldw	r2,-32764(gp)
   10db0:	1007883a 	mov	r3,r2
   10db4:	008000b4 	movhi	r2,2
   10db8:	10884c04 	addi	r2,r2,8496
   10dbc:	10c00035 	stwio	r3,0(r2)
    IOWR(DC2_PWM2_BASE+0x04,0,dc_m2_pwm_duty);
   10dc0:	00c000b4 	movhi	r3,2
   10dc4:	18c84d04 	addi	r3,r3,8500
   10dc8:	e0bffe17 	ldw	r2,-8(fp)
   10dcc:	18800035 	stwio	r2,0(r3)
    IOWR(DC1_PWM2_BASE,0,dc_m1_pwm_freq);
   10dd0:	d0a00017 	ldw	r2,-32768(gp)
   10dd4:	1007883a 	mov	r3,r2
   10dd8:	008000b4 	movhi	r2,2
   10ddc:	10884804 	addi	r2,r2,8480
   10de0:	10c00035 	stwio	r3,0(r2)
    IOWR(DC1_PWM2_BASE+0x04,0,dc_m1_pwm_duty);
   10de4:	00c000b4 	movhi	r3,2
   10de8:	18c84904 	addi	r3,r3,8484
   10dec:	e0bfff17 	ldw	r2,-4(fp)
   10df0:	18800035 	stwio	r2,0(r3)

    IOWR(IR_RX2_BASE,1,500);
   10df4:	00c000b4 	movhi	r3,2
   10df8:	18c85d04 	addi	r3,r3,8564
   10dfc:	00807d04 	movi	r2,500
   10e00:	18800035 	stwio	r2,0(r3)
    IOWR(IR_RX1_BASE,1,500);
   10e04:	00c000b4 	movhi	r3,2
   10e08:	18c85b04 	addi	r3,r3,8556
   10e0c:	00807d04 	movi	r2,500
   10e10:	18800035 	stwio	r2,0(r3)
    IOWR(IR_RX2_BASE,0x00,1);
   10e14:	00c000b4 	movhi	r3,2
   10e18:	18c85c04 	addi	r3,r3,8560
   10e1c:	00800044 	movi	r2,1
   10e20:	18800035 	stwio	r2,0(r3)
    IOWR(IR_RX1_BASE,0x00,1);
   10e24:	00c000b4 	movhi	r3,2
   10e28:	18c85a04 	addi	r3,r3,8552
   10e2c:	00800044 	movi	r2,1
   10e30:	18800035 	stwio	r2,0(r3)

    IOWR(DC1_PWM2_BASE+0x08,0,1);
   10e34:	00c000b4 	movhi	r3,2
   10e38:	18c84a04 	addi	r3,r3,8488
   10e3c:	00800044 	movi	r2,1
   10e40:	18800035 	stwio	r2,0(r3)
    IOWR(DC2_PWM2_BASE+0x08,0,1);
   10e44:	00c000b4 	movhi	r3,2
   10e48:	18c84e04 	addi	r3,r3,8504
   10e4c:	00800044 	movi	r2,1
   10e50:	18800035 	stwio	r2,0(r3)
   10e54:	00000006 	br	10e58 <move_bwd+0x114>


    while(1){
        edge = IORD(PS_DIN_BASE,0);
   10e58:	008000b4 	movhi	r2,2
   10e5c:	10883804 	addi	r2,r2,8416
   10e60:	10800037 	ldwio	r2,0(r2)
   10e64:	d0a02115 	stw	r2,-32636(gp)
            if(( dc1_cmp ==0 ) && (dc2_cmp ==0 ))  {
   10e68:	d0a02417 	ldw	r2,-32624(gp)
   10e6c:	1004c03a 	cmpne	r2,r2,zero
   10e70:	10000a1e 	bne	r2,zero,10e9c <move_bwd+0x158>
   10e74:	d0a01c17 	ldw	r2,-32656(gp)
   10e78:	1004c03a 	cmpne	r2,r2,zero
   10e7c:	1000071e 	bne	r2,zero,10e9c <move_bwd+0x158>
            IOWR(DC1_PWM2_BASE+0x08,0,0);
   10e80:	008000b4 	movhi	r2,2
   10e84:	10884a04 	addi	r2,r2,8488
   10e88:	10000035 	stwio	zero,0(r2)
            IOWR(DC2_PWM2_BASE+0x08,0,0);
   10e8c:	008000b4 	movhi	r2,2
   10e90:	10884e04 	addi	r2,r2,8504
   10e94:	10000035 	stwio	zero,0(r2)
            IOWR(DC2_PWM2_BASE+0x04,0,dc_m2_pwm_duty);
            IOWR(DC1_PWM2_BASE+0x04,0,dc_m1_pwm_duty);
        }
      }
    }
}
   10e98:	00004006 	br	10f9c <move_bwd+0x258>
            IOWR(DC1_PWM2_BASE+0x08,0,0);
            IOWR(DC2_PWM2_BASE+0x08,0,0);
            break;
        }
        else {
        usleep(100000);
   10e9c:	010000b4 	movhi	r4,2
   10ea0:	2121a804 	addi	r4,r4,-31072
   10ea4:	00160e00 	call	160e0 <usleep>
        dc_m1 = IORD(IR_RX1_BASE,1);
   10ea8:	008000b4 	movhi	r2,2
   10eac:	10885b04 	addi	r2,r2,8556
   10eb0:	10800037 	ldwio	r2,0(r2)
   10eb4:	d0a01e15 	stw	r2,-32648(gp)
        dc_m2 = IORD(IR_RX2_BASE,1);
   10eb8:	008000b4 	movhi	r2,2
   10ebc:	10885d04 	addi	r2,r2,8564
   10ec0:	10800037 	ldwio	r2,0(r2)
   10ec4:	d0a02715 	stw	r2,-32612(gp)
        i = dc_m1-dc_m2;
   10ec8:	d0e01e17 	ldw	r3,-32648(gp)
   10ecc:	d0a02717 	ldw	r2,-32612(gp)
   10ed0:	1885c83a 	sub	r2,r3,r2
   10ed4:	d0a01915 	stw	r2,-32668(gp)
        j = dc_m2-dc_m1;
   10ed8:	d0e02717 	ldw	r3,-32612(gp)
   10edc:	d0a01e17 	ldw	r2,-32648(gp)
   10ee0:	1885c83a 	sub	r2,r3,r2
   10ee4:	d0a01415 	stw	r2,-32688(gp)
        if(i > 25) {
   10ee8:	d0a01917 	ldw	r2,-32668(gp)
   10eec:	10800690 	cmplti	r2,r2,26
   10ef0:	1000151e 	bne	r2,zero,10f48 <move_bwd+0x204>
            if(dc_m2_pwm_duty >= 100)
   10ef4:	e0bffe17 	ldw	r2,-8(fp)
   10ef8:	10801910 	cmplti	r2,r2,100
   10efc:	1000031e 	bne	r2,zero,10f0c <move_bwd+0x1c8>
                dc_m2_pwm_duty-=75;
   10f00:	e0bffe17 	ldw	r2,-8(fp)
   10f04:	10bfed44 	addi	r2,r2,-75
   10f08:	e0bffe15 	stw	r2,-8(fp)
            if(dc_m1_pwm_duty < 1700)
   10f0c:	e0bfff17 	ldw	r2,-4(fp)
   10f10:	1081a908 	cmpgei	r2,r2,1700
   10f14:	1000031e 	bne	r2,zero,10f24 <move_bwd+0x1e0>
                dc_m1_pwm_duty+=75;
   10f18:	e0bfff17 	ldw	r2,-4(fp)
   10f1c:	108012c4 	addi	r2,r2,75
   10f20:	e0bfff15 	stw	r2,-4(fp)
            IOWR(DC2_PWM2_BASE+0x04,0,dc_m2_pwm_duty);
   10f24:	00c000b4 	movhi	r3,2
   10f28:	18c84d04 	addi	r3,r3,8500
   10f2c:	e0bffe17 	ldw	r2,-8(fp)
   10f30:	18800035 	stwio	r2,0(r3)
            IOWR(DC1_PWM2_BASE+0x04,0,dc_m1_pwm_duty);
   10f34:	00c000b4 	movhi	r3,2
   10f38:	18c84904 	addi	r3,r3,8484
   10f3c:	e0bfff17 	ldw	r2,-4(fp)
   10f40:	18800035 	stwio	r2,0(r3)
   10f44:	003fc406 	br	10e58 <move_bwd+0x114>
        }
        else
        if(j > 25) {
   10f48:	d0a01417 	ldw	r2,-32688(gp)
   10f4c:	10800690 	cmplti	r2,r2,26
   10f50:	103fc11e 	bne	r2,zero,10e58 <move_bwd+0x114>
            if(dc_m1_pwm_duty >= 100);
                dc_m1_pwm_duty-=75;
   10f54:	e0bfff17 	ldw	r2,-4(fp)
   10f58:	10bfed44 	addi	r2,r2,-75
   10f5c:	e0bfff15 	stw	r2,-4(fp)
            if(dc_m2_pwm_duty < 1700)
   10f60:	e0bffe17 	ldw	r2,-8(fp)
   10f64:	1081a908 	cmpgei	r2,r2,1700
   10f68:	1000031e 	bne	r2,zero,10f78 <move_bwd+0x234>
                dc_m2_pwm_duty+=75;
   10f6c:	e0bffe17 	ldw	r2,-8(fp)
   10f70:	108012c4 	addi	r2,r2,75
   10f74:	e0bffe15 	stw	r2,-8(fp)
            IOWR(DC2_PWM2_BASE+0x04,0,dc_m2_pwm_duty);
   10f78:	00c000b4 	movhi	r3,2
   10f7c:	18c84d04 	addi	r3,r3,8500
   10f80:	e0bffe17 	ldw	r2,-8(fp)
   10f84:	18800035 	stwio	r2,0(r3)
            IOWR(DC1_PWM2_BASE+0x04,0,dc_m1_pwm_duty);
   10f88:	00c000b4 	movhi	r3,2
   10f8c:	18c84904 	addi	r3,r3,8484
   10f90:	e0bfff17 	ldw	r2,-4(fp)
   10f94:	18800035 	stwio	r2,0(r3)
        }
      }
    }
   10f98:	003faf06 	br	10e58 <move_bwd+0x114>
}
   10f9c:	e037883a 	mov	sp,fp
   10fa0:	dfc00117 	ldw	ra,4(sp)
   10fa4:	df000017 	ldw	fp,0(sp)
   10fa8:	dec00204 	addi	sp,sp,8
   10fac:	f800283a 	ret

00010fb0 <main>:
#include <unistd.h>         // read, write, close
#include <fcntl.h>          // open, O_RDWR | O_NONBLOCK
#include <string.h>         // strcpy
#include <ctype.h>          // isprint
int main ( void )
{
   10fb0:	deffe204 	addi	sp,sp,-120
   10fb4:	dfc01d15 	stw	ra,116(sp)
   10fb8:	df001c15 	stw	fp,112(sp)
   10fbc:	df001c04 	addi	fp,sp,112
	  //Stop all motors
	  IOWR(DC2_PWM2_BASE+0x08,0,0);
   10fc0:	008000b4 	movhi	r2,2
   10fc4:	10884e04 	addi	r2,r2,8504
   10fc8:	10000035 	stwio	zero,0(r2)
	  IOWR(DC2_PWM1_BASE+0x08,0,0);
   10fcc:	008000b4 	movhi	r2,2
   10fd0:	10885604 	addi	r2,r2,8536
   10fd4:	10000035 	stwio	zero,0(r2)
	  IOWR(DC1_PWM2_BASE+0x08,0,0);
   10fd8:	008000b4 	movhi	r2,2
   10fdc:	10884a04 	addi	r2,r2,8488
   10fe0:	10000035 	stwio	zero,0(r2)
	  IOWR(DC1_PWM1_BASE+0x08,0,0);
   10fe4:	008000b4 	movhi	r2,2
   10fe8:	10885204 	addi	r2,r2,8520
   10fec:	10000035 	stwio	zero,0(r2)

	  //all LEDs off
	  IOWR(USER_LED_BASE,0,7);
   10ff0:	00c000b4 	movhi	r3,2
   10ff4:	18c82404 	addi	r3,r3,8336
   10ff8:	008001c4 	movi	r2,7
   10ffc:	18800035 	stwio	r2,0(r3)
	  LCD_init(LCD_INTF_BASE);
   11000:	010000b4 	movhi	r4,2
   11004:	21085e04 	addi	r4,r4,8568
   11008:	00112e00 	call	112e0 <LCD_init>

	  // Mode Selection LCD Display
	  LCD_draw_box (0, 0 ,160,128, RGB16(255,0,0),1);
   1100c:	00be0014 	movui	r2,63488
   11010:	d8800015 	stw	r2,0(sp)
   11014:	00800044 	movi	r2,1
   11018:	d8800115 	stw	r2,4(sp)
   1101c:	0009883a 	mov	r4,zero
   11020:	000b883a 	mov	r5,zero
   11024:	01802804 	movi	r6,160
   11028:	01c02004 	movi	r7,128
   1102c:	00119480 	call	11948 <LCD_draw_box>
	  LCD_draw_round_corner_box(5,5,155,123,10,RGB16(25,27,126),1);
   11030:	00800284 	movi	r2,10
   11034:	d8800015 	stw	r2,0(sp)
   11038:	008633c4 	movi	r2,6351
   1103c:	d8800115 	stw	r2,4(sp)
   11040:	00800044 	movi	r2,1
   11044:	d8800215 	stw	r2,8(sp)
   11048:	01000144 	movi	r4,5
   1104c:	01400144 	movi	r5,5
   11050:	018026c4 	movi	r6,155
   11054:	01c01ec4 	movi	r7,123
   11058:	00129780 	call	12978 <LCD_draw_round_corner_box>
	  LCD_print_string(22,12,RGB16(255,255,255),(char *)cour10_font_array,"Bending Unit 22");
   1105c:	01c00074 	movhi	r7,1
   11060:	39df7004 	addi	r7,r7,32192
   11064:	00800074 	movhi	r2,1
   11068:	109e5e04 	addi	r2,r2,31096
   1106c:	d8800015 	stw	r2,0(sp)
   11070:	01000584 	movi	r4,22
   11074:	01400304 	movi	r5,12
   11078:	01bfffd4 	movui	r6,65535
   1107c:	00117dc0 	call	117dc <LCD_print_string>
	  LCD_draw_line(22, 24,135, 24,5, RGB16(255,255,255));
   11080:	00800144 	movi	r2,5
   11084:	d8800015 	stw	r2,0(sp)
   11088:	00bfffd4 	movui	r2,65535
   1108c:	d8800115 	stw	r2,4(sp)
   11090:	01000584 	movi	r4,22
   11094:	01400604 	movi	r5,24
   11098:	018021c4 	movi	r6,135
   1109c:	01c00604 	movi	r7,24
   110a0:	00117300 	call	11730 <LCD_draw_line>
	  LCD_print_string(8,40,RGB16(255,255,255),(char*)cour10_font_array,  "UART 0 Test");
   110a4:	01c00074 	movhi	r7,1
   110a8:	39df7004 	addi	r7,r7,32192
   110ac:	00800074 	movhi	r2,1
   110b0:	109e6204 	addi	r2,r2,31112
   110b4:	d8800015 	stw	r2,0(sp)
   110b8:	01000204 	movi	r4,8
   110bc:	01400a04 	movi	r5,40
   110c0:	01bfffd4 	movui	r6,65535
   110c4:	00117dc0 	call	117dc <LCD_print_string>
	  //LCD_print_string(8,55,RGB16(255,255,255),(char *)cour10_font_array,"SW8 : Wall Detect");

	char buff[80];
    int fd;
    int count = 0;
   110c8:	e03fe915 	stw	zero,-92(fp)

    printf("\n\rStarting UART_fd.c\n\r");
   110cc:	01000074 	movhi	r4,1
   110d0:	211e6504 	addi	r4,r4,31124
   110d4:	0014ea40 	call	14ea4 <printf>
    fd = open ("/dev/uart_0", O_RDWR | O_NONBLOCK);
   110d8:	01000074 	movhi	r4,1
   110dc:	211e6b04 	addi	r4,r4,31148
   110e0:	01500084 	movi	r5,16386
   110e4:	0015cf80 	call	15cf8 <open>
   110e8:	e0bfea15 	stw	r2,-88(fp)
    printf("fd=%08x\n", fd);
   110ec:	01000074 	movhi	r4,1
   110f0:	211e6e04 	addi	r4,r4,31160
   110f4:	e17fea17 	ldw	r5,-88(fp)
   110f8:	0014ea40 	call	14ea4 <printf>
    strcpy(buff, "\n\rhello UART. talk to me.\n\r");
   110fc:	e0ffeb04 	addi	r3,fp,-84
   11100:	00995a34 	movhi	r2,25960
   11104:	10834284 	addi	r2,r2,3338
   11108:	18800015 	stw	r2,0(r3)
   1110c:	00881bf4 	movhi	r2,8303
   11110:	109b1b04 	addi	r2,r2,27756
   11114:	18800115 	stw	r2,4(r3)
   11118:	009514b4 	movhi	r2,21586
   1111c:	10905544 	addi	r2,r2,16725
   11120:	18800215 	stw	r2,8(r3)
   11124:	00985d34 	movhi	r2,24948
   11128:	10880b84 	addi	r2,r2,8238
   1112c:	18800315 	stw	r2,12(r3)
   11130:	009d0834 	movhi	r2,29728
   11134:	109adb04 	addi	r2,r2,27500
   11138:	18800415 	stw	r2,16(r3)
   1113c:	00995b74 	movhi	r2,25965
   11140:	10881bc4 	addi	r2,r2,8303
   11144:	18800515 	stw	r2,20(r3)
   11148:	00800374 	movhi	r2,13
   1114c:	10828b84 	addi	r2,r2,2606
   11150:	18800615 	stw	r2,24(r3)
    write(fd, buff, strlen(buff));
   11154:	e13feb04 	addi	r4,fp,-84
   11158:	00150c40 	call	150c4 <strlen>
   1115c:	100d883a 	mov	r6,r2
   11160:	e17feb04 	addi	r5,fp,-84
   11164:	e13fea17 	ldw	r4,-88(fp)
   11168:	00161100 	call	16110 <write>
   1116c:	00000006 	br	11170 <main+0x1c0>
    while (1)
    {
        int nbr;
        char ch;

        if ( (nbr = read(fd, buff, 1)) > 0)
   11170:	e17feb04 	addi	r5,fp,-84
   11174:	e13fea17 	ldw	r4,-88(fp)
   11178:	01800044 	movi	r6,1
   1117c:	0015ee40 	call	15ee4 <read>
   11180:	e0bfe815 	stw	r2,-96(fp)
   11184:	e0bfe817 	ldw	r2,-96(fp)
   11188:	10800050 	cmplti	r2,r2,1
   1118c:	1000291e 	bne	r2,zero,11234 <main+0x284>
        {
            ch = buff[0];
   11190:	e0bfeb03 	ldbu	r2,-84(fp)
   11194:	e0bfe705 	stb	r2,-100(fp)
            printf("%c[%02x]", isprint(buff[0])?buff[0]:'_', buff[0]);
   11198:	e0bfeb03 	ldbu	r2,-84(fp)
   1119c:	10803fcc 	andi	r2,r2,255
   111a0:	1080201c 	xori	r2,r2,128
   111a4:	10bfe004 	addi	r2,r2,-128
   111a8:	1007883a 	mov	r3,r2
   111ac:	008000b4 	movhi	r2,2
   111b0:	10a13104 	addi	r2,r2,-31548
   111b4:	10800017 	ldw	r2,0(r2)
   111b8:	1885883a 	add	r2,r3,r2
   111bc:	10800003 	ldbu	r2,0(r2)
   111c0:	10803fcc 	andi	r2,r2,255
   111c4:	1080201c 	xori	r2,r2,128
   111c8:	10bfe004 	addi	r2,r2,-128
   111cc:	108025cc 	andi	r2,r2,151
   111d0:	1005003a 	cmpeq	r2,r2,zero
   111d4:	1000061e 	bne	r2,zero,111f0 <main+0x240>
   111d8:	e0bfeb03 	ldbu	r2,-84(fp)
   111dc:	10803fcc 	andi	r2,r2,255
   111e0:	1080201c 	xori	r2,r2,128
   111e4:	10bfe004 	addi	r2,r2,-128
   111e8:	e0bfff15 	stw	r2,-4(fp)
   111ec:	00000206 	br	111f8 <main+0x248>
   111f0:	008017c4 	movi	r2,95
   111f4:	e0bfff15 	stw	r2,-4(fp)
   111f8:	e0bfeb03 	ldbu	r2,-84(fp)
   111fc:	11803fcc 	andi	r6,r2,255
   11200:	3180201c 	xori	r6,r6,128
   11204:	31bfe004 	addi	r6,r6,-128
   11208:	01000074 	movhi	r4,1
   1120c:	211e7104 	addi	r4,r4,31172
   11210:	e17fff17 	ldw	r5,-4(fp)
   11214:	0014ea40 	call	14ea4 <printf>
            write(fd, buff, nbr);
   11218:	e1bfe817 	ldw	r6,-96(fp)
   1121c:	e17feb04 	addi	r5,fp,-84
   11220:	e13fea17 	ldw	r4,-88(fp)
   11224:	00161100 	call	16110 <write>
            if (ch == 0x1b) break;
   11228:	e0bfe707 	ldb	r2,-100(fp)
   1122c:	108006e0 	cmpeqi	r2,r2,27
   11230:	10000f1e 	bne	r2,zero,11270 <main+0x2c0>
        }
        count++; if (count > 100000) { count=0; putchar('.');}
   11234:	e0bfe917 	ldw	r2,-92(fp)
   11238:	10800044 	addi	r2,r2,1
   1123c:	e0bfe915 	stw	r2,-92(fp)
   11240:	e0ffe917 	ldw	r3,-92(fp)
   11244:	008000b4 	movhi	r2,2
   11248:	10a1a804 	addi	r2,r2,-31072
   1124c:	10ffc80e 	bge	r2,r3,11170 <main+0x1c0>
   11250:	e03fe915 	stw	zero,-92(fp)
   11254:	008000b4 	movhi	r2,2
   11258:	10a13204 	addi	r2,r2,-31544
   1125c:	10800017 	ldw	r2,0(r2)
   11260:	11400217 	ldw	r5,8(r2)
   11264:	01000b84 	movi	r4,46
   11268:	0014f3c0 	call	14f3c <putc>
    }
   1126c:	003fc006 	br	11170 <main+0x1c0>
    strcpy(buff, "\n\rgood bye\n\r");
   11270:	e0ffeb04 	addi	r3,fp,-84
   11274:	009bd9f4 	movhi	r2,28519
   11278:	10834284 	addi	r2,r2,3338
   1127c:	18800015 	stw	r2,0(r3)
   11280:	00988834 	movhi	r2,25120
   11284:	10991bc4 	addi	r2,r2,25711
   11288:	18800115 	stw	r2,4(r3)
   1128c:	008342b4 	movhi	r2,3338
   11290:	10995e44 	addi	r2,r2,25977
   11294:	18800215 	stw	r2,8(r3)
   11298:	18000305 	stb	zero,12(r3)
    write(fd, buff, strlen(buff));
   1129c:	e13feb04 	addi	r4,fp,-84
   112a0:	00150c40 	call	150c4 <strlen>
   112a4:	100d883a 	mov	r6,r2
   112a8:	e17feb04 	addi	r5,fp,-84
   112ac:	e13fea17 	ldw	r4,-88(fp)
   112b0:	00161100 	call	16110 <write>

    close(fd);
   112b4:	e13fea17 	ldw	r4,-88(fp)
   112b8:	0015a080 	call	15a08 <close>

    printf("\nall done\n");
   112bc:	01000074 	movhi	r4,1
   112c0:	211e7404 	addi	r4,r4,31184
   112c4:	00150b00 	call	150b0 <puts>
    return 0;
   112c8:	0005883a 	mov	r2,zero
}
   112cc:	e037883a 	mov	sp,fp
   112d0:	dfc00117 	ldw	ra,4(sp)
   112d4:	df000017 	ldw	fp,0(sp)
   112d8:	dec00204 	addi	sp,sp,8
   112dc:	f800283a 	ret

000112e0 <LCD_init>:
   112e0:	defff104 	addi	sp,sp,-60
   112e4:	df000e15 	stw	fp,56(sp)
   112e8:	df000e04 	addi	fp,sp,56
   112ec:	e13fff15 	stw	r4,-4(fp)
   112f0:	e03ffc15 	stw	zero,-16(fp)
   112f4:	e03ffb15 	stw	zero,-20(fp)
   112f8:	008027c4 	movi	r2,159
   112fc:	e0bffa15 	stw	r2,-24(fp)
   11300:	00801fc4 	movi	r2,127
   11304:	e0bff915 	stw	r2,-28(fp)
   11308:	e0bfff17 	ldw	r2,-4(fp)
   1130c:	d0a02915 	stw	r2,-32604(gp)
   11310:	d0e02917 	ldw	r3,-32604(gp)
   11314:	00800044 	movi	r2,1
   11318:	18800035 	stwio	r2,0(r3)
   1131c:	d0e02917 	ldw	r3,-32604(gp)
   11320:	00800104 	movi	r2,4
   11324:	18800035 	stwio	r2,0(r3)
   11328:	d0a02917 	ldw	r2,-32604(gp)
   1132c:	10800104 	addi	r2,r2,4
   11330:	10800037 	ldwio	r2,0(r2)
   11334:	e0bff515 	stw	r2,-44(fp)
   11338:	e0bff517 	ldw	r2,-44(fp)
   1133c:	e0bffd15 	stw	r2,-12(fp)
   11340:	d0a02917 	ldw	r2,-32604(gp)
   11344:	10800104 	addi	r2,r2,4
   11348:	10800037 	ldwio	r2,0(r2)
   1134c:	e0bff415 	stw	r2,-48(fp)
   11350:	e0bff417 	ldw	r2,-48(fp)
   11354:	e0bff815 	stw	r2,-32(fp)
   11358:	d0a02917 	ldw	r2,-32604(gp)
   1135c:	10800104 	addi	r2,r2,4
   11360:	10800037 	ldwio	r2,0(r2)
   11364:	e0bff315 	stw	r2,-52(fp)
   11368:	e0bff317 	ldw	r2,-52(fp)
   1136c:	e0bff715 	stw	r2,-36(fp)
   11370:	d0a02917 	ldw	r2,-32604(gp)
   11374:	10800104 	addi	r2,r2,4
   11378:	10800037 	ldwio	r2,0(r2)
   1137c:	e0bff215 	stw	r2,-56(fp)
   11380:	e0bff217 	ldw	r2,-56(fp)
   11384:	e0bff615 	stw	r2,-40(fp)
   11388:	d0e02917 	ldw	r3,-32604(gp)
   1138c:	00800444 	movi	r2,17
   11390:	18800035 	stwio	r2,0(r3)
   11394:	d0e02917 	ldw	r3,-32604(gp)
   11398:	00800e84 	movi	r2,58
   1139c:	18800035 	stwio	r2,0(r3)
   113a0:	d0a02917 	ldw	r2,-32604(gp)
   113a4:	10c00104 	addi	r3,r2,4
   113a8:	00801d44 	movi	r2,117
   113ac:	18800035 	stwio	r2,0(r3)
   113b0:	e0bff817 	ldw	r2,-32(fp)
   113b4:	10801718 	cmpnei	r2,r2,92
   113b8:	10000e1e 	bne	r2,zero,113f4 <LCD_init+0x114>
   113bc:	e0bff717 	ldw	r2,-36(fp)
   113c0:	10802258 	cmpnei	r2,r2,137
   113c4:	10000b1e 	bne	r2,zero,113f4 <LCD_init+0x114>
   113c8:	e0bff617 	ldw	r2,-40(fp)
   113cc:	10803c18 	cmpnei	r2,r2,240
   113d0:	1000081e 	bne	r2,zero,113f4 <LCD_init+0x114>
   113d4:	d0e02917 	ldw	r3,-32604(gp)
   113d8:	00800d84 	movi	r2,54
   113dc:	18800035 	stwio	r2,0(r3)
   113e0:	d0a02917 	ldw	r2,-32604(gp)
   113e4:	10c00104 	addi	r3,r2,4
   113e8:	00802804 	movi	r2,160
   113ec:	18800035 	stwio	r2,0(r3)
   113f0:	00000706 	br	11410 <LCD_init+0x130>
   113f4:	d0e02917 	ldw	r3,-32604(gp)
   113f8:	00800d84 	movi	r2,54
   113fc:	18800035 	stwio	r2,0(r3)
   11400:	d0a02917 	ldw	r2,-32604(gp)
   11404:	10c00104 	addi	r3,r2,4
   11408:	00801a04 	movi	r2,104
   1140c:	18800035 	stwio	r2,0(r3)
   11410:	d0a02917 	ldw	r2,-32604(gp)
   11414:	1007883a 	mov	r3,r2
   11418:	00803004 	movi	r2,192
   1141c:	18800035 	stwio	r2,0(r3)
   11420:	d0a02917 	ldw	r2,-32604(gp)
   11424:	10800104 	addi	r2,r2,4
   11428:	1007883a 	mov	r3,r2
   1142c:	00800144 	movi	r2,5
   11430:	18800035 	stwio	r2,0(r3)
   11434:	d0a02917 	ldw	r2,-32604(gp)
   11438:	10800104 	addi	r2,r2,4
   1143c:	1007883a 	mov	r3,r2
   11440:	00800144 	movi	r2,5
   11444:	18800035 	stwio	r2,0(r3)
   11448:	d0a02917 	ldw	r2,-32604(gp)
   1144c:	1007883a 	mov	r3,r2
   11450:	00803044 	movi	r2,193
   11454:	18800035 	stwio	r2,0(r3)
   11458:	d0a02917 	ldw	r2,-32604(gp)
   1145c:	10800104 	addi	r2,r2,4
   11460:	1007883a 	mov	r3,r2
   11464:	008001c4 	movi	r2,7
   11468:	18800035 	stwio	r2,0(r3)
   1146c:	d0a02917 	ldw	r2,-32604(gp)
   11470:	1007883a 	mov	r3,r2
   11474:	00803084 	movi	r2,194
   11478:	18800035 	stwio	r2,0(r3)
   1147c:	d0a02917 	ldw	r2,-32604(gp)
   11480:	10800104 	addi	r2,r2,4
   11484:	1007883a 	mov	r3,r2
   11488:	00800144 	movi	r2,5
   1148c:	18800035 	stwio	r2,0(r3)
   11490:	d0a02917 	ldw	r2,-32604(gp)
   11494:	10800104 	addi	r2,r2,4
   11498:	1007883a 	mov	r3,r2
   1149c:	00800084 	movi	r2,2
   114a0:	18800035 	stwio	r2,0(r3)
   114a4:	d0a02917 	ldw	r2,-32604(gp)
   114a8:	1007883a 	mov	r3,r2
   114ac:	008030c4 	movi	r2,195
   114b0:	18800035 	stwio	r2,0(r3)
   114b4:	d0a02917 	ldw	r2,-32604(gp)
   114b8:	10800104 	addi	r2,r2,4
   114bc:	1007883a 	mov	r3,r2
   114c0:	00802284 	movi	r2,138
   114c4:	18800035 	stwio	r2,0(r3)
   114c8:	d0a02917 	ldw	r2,-32604(gp)
   114cc:	10800104 	addi	r2,r2,4
   114d0:	1007883a 	mov	r3,r2
   114d4:	00800a84 	movi	r2,42
   114d8:	18800035 	stwio	r2,0(r3)
   114dc:	d0a02917 	ldw	r2,-32604(gp)
   114e0:	1007883a 	mov	r3,r2
   114e4:	00803104 	movi	r2,196
   114e8:	18800035 	stwio	r2,0(r3)
   114ec:	d0a02917 	ldw	r2,-32604(gp)
   114f0:	10800104 	addi	r2,r2,4
   114f4:	1007883a 	mov	r3,r2
   114f8:	00800144 	movi	r2,5
   114fc:	18800035 	stwio	r2,0(r3)
   11500:	d0a02917 	ldw	r2,-32604(gp)
   11504:	10800104 	addi	r2,r2,4
   11508:	1007883a 	mov	r3,r2
   1150c:	00800084 	movi	r2,2
   11510:	18800035 	stwio	r2,0(r3)
   11514:	d0a02917 	ldw	r2,-32604(gp)
   11518:	1007883a 	mov	r3,r2
   1151c:	00803144 	movi	r2,197
   11520:	18800035 	stwio	r2,0(r3)
   11524:	d0a02917 	ldw	r2,-32604(gp)
   11528:	10800104 	addi	r2,r2,4
   1152c:	1007883a 	mov	r3,r2
   11530:	00803404 	movi	r2,208
   11534:	18800035 	stwio	r2,0(r3)
   11538:	d0a02917 	ldw	r2,-32604(gp)
   1153c:	1007883a 	mov	r3,r2
   11540:	00803184 	movi	r2,198
   11544:	18800035 	stwio	r2,0(r3)
   11548:	d0a02917 	ldw	r2,-32604(gp)
   1154c:	10800104 	addi	r2,r2,4
   11550:	1007883a 	mov	r3,r2
   11554:	00800544 	movi	r2,21
   11558:	18800035 	stwio	r2,0(r3)
   1155c:	d0e02917 	ldw	r3,-32604(gp)
   11560:	00800a44 	movi	r2,41
   11564:	18800035 	stwio	r2,0(r3)
   11568:	e03ffc15 	stw	zero,-16(fp)
   1156c:	e03ffb15 	stw	zero,-20(fp)
   11570:	008027c4 	movi	r2,159
   11574:	e0bffa15 	stw	r2,-24(fp)
   11578:	00801fc4 	movi	r2,127
   1157c:	e0bff915 	stw	r2,-28(fp)
   11580:	d0e02917 	ldw	r3,-32604(gp)
   11584:	00800a84 	movi	r2,42
   11588:	18800035 	stwio	r2,0(r3)
   1158c:	e0bffc17 	ldw	r2,-16(fp)
   11590:	10bfc00c 	andi	r2,r2,65280
   11594:	1007d23a 	srai	r3,r2,8
   11598:	d0a02917 	ldw	r2,-32604(gp)
   1159c:	10800104 	addi	r2,r2,4
   115a0:	10c00035 	stwio	r3,0(r2)
   115a4:	e0bffc17 	ldw	r2,-16(fp)
   115a8:	10c03fcc 	andi	r3,r2,255
   115ac:	d0a02917 	ldw	r2,-32604(gp)
   115b0:	10800104 	addi	r2,r2,4
   115b4:	10c00035 	stwio	r3,0(r2)
   115b8:	e0bffa17 	ldw	r2,-24(fp)
   115bc:	10bfc00c 	andi	r2,r2,65280
   115c0:	1007d23a 	srai	r3,r2,8
   115c4:	d0a02917 	ldw	r2,-32604(gp)
   115c8:	10800104 	addi	r2,r2,4
   115cc:	10c00035 	stwio	r3,0(r2)
   115d0:	e0bffa17 	ldw	r2,-24(fp)
   115d4:	10c03fcc 	andi	r3,r2,255
   115d8:	d0a02917 	ldw	r2,-32604(gp)
   115dc:	10800104 	addi	r2,r2,4
   115e0:	10c00035 	stwio	r3,0(r2)
   115e4:	d0e02917 	ldw	r3,-32604(gp)
   115e8:	00800ac4 	movi	r2,43
   115ec:	18800035 	stwio	r2,0(r3)
   115f0:	e0bffb17 	ldw	r2,-20(fp)
   115f4:	10bfc00c 	andi	r2,r2,65280
   115f8:	1007d23a 	srai	r3,r2,8
   115fc:	d0a02917 	ldw	r2,-32604(gp)
   11600:	10800104 	addi	r2,r2,4
   11604:	10c00035 	stwio	r3,0(r2)
   11608:	e0bffb17 	ldw	r2,-20(fp)
   1160c:	10c03fcc 	andi	r3,r2,255
   11610:	d0a02917 	ldw	r2,-32604(gp)
   11614:	10800104 	addi	r2,r2,4
   11618:	10c00035 	stwio	r3,0(r2)
   1161c:	e0bff917 	ldw	r2,-28(fp)
   11620:	10bfc00c 	andi	r2,r2,65280
   11624:	1007d23a 	srai	r3,r2,8
   11628:	d0a02917 	ldw	r2,-32604(gp)
   1162c:	10800104 	addi	r2,r2,4
   11630:	10c00035 	stwio	r3,0(r2)
   11634:	e0bff917 	ldw	r2,-28(fp)
   11638:	10c03fcc 	andi	r3,r2,255
   1163c:	d0a02917 	ldw	r2,-32604(gp)
   11640:	10800104 	addi	r2,r2,4
   11644:	10c00035 	stwio	r3,0(r2)
   11648:	d0e02917 	ldw	r3,-32604(gp)
   1164c:	00800b04 	movi	r2,44
   11650:	18800035 	stwio	r2,0(r3)
   11654:	e03ffe15 	stw	zero,-8(fp)
   11658:	00000b06 	br	11688 <LCD_init+0x3a8>
   1165c:	d0a02917 	ldw	r2,-32604(gp)
   11660:	10c00104 	addi	r3,r2,4
   11664:	0005883a 	mov	r2,zero
   11668:	18800035 	stwio	r2,0(r3)
   1166c:	d0a02917 	ldw	r2,-32604(gp)
   11670:	10c00104 	addi	r3,r2,4
   11674:	008007c4 	movi	r2,31
   11678:	18800035 	stwio	r2,0(r3)
   1167c:	e0bffe17 	ldw	r2,-8(fp)
   11680:	10800084 	addi	r2,r2,2
   11684:	e0bffe15 	stw	r2,-8(fp)
   11688:	e0bffe17 	ldw	r2,-8(fp)
   1168c:	108c8010 	cmplti	r2,r2,12800
   11690:	103ff21e 	bne	r2,zero,1165c <LCD_init+0x37c>
   11694:	e03ffe15 	stw	zero,-8(fp)
   11698:	00000b06 	br	116c8 <LCD_init+0x3e8>
   1169c:	d0a02917 	ldw	r2,-32604(gp)
   116a0:	10c00104 	addi	r3,r2,4
   116a4:	00803fc4 	movi	r2,255
   116a8:	18800035 	stwio	r2,0(r3)
   116ac:	d0a02917 	ldw	r2,-32604(gp)
   116b0:	10c00104 	addi	r3,r2,4
   116b4:	00803fc4 	movi	r2,255
   116b8:	18800035 	stwio	r2,0(r3)
   116bc:	e0bffe17 	ldw	r2,-8(fp)
   116c0:	10800084 	addi	r2,r2,2
   116c4:	e0bffe15 	stw	r2,-8(fp)
   116c8:	e0bffe17 	ldw	r2,-8(fp)
   116cc:	108c8010 	cmplti	r2,r2,12800
   116d0:	103ff21e 	bne	r2,zero,1169c <LCD_init+0x3bc>
   116d4:	e03ffe15 	stw	zero,-8(fp)
   116d8:	00000b06 	br	11708 <LCD_init+0x428>
   116dc:	d0a02917 	ldw	r2,-32604(gp)
   116e0:	10c00104 	addi	r3,r2,4
   116e4:	00803e04 	movi	r2,248
   116e8:	18800035 	stwio	r2,0(r3)
   116ec:	d0a02917 	ldw	r2,-32604(gp)
   116f0:	10c00104 	addi	r3,r2,4
   116f4:	0005883a 	mov	r2,zero
   116f8:	18800035 	stwio	r2,0(r3)
   116fc:	e0bffe17 	ldw	r2,-8(fp)
   11700:	10800084 	addi	r2,r2,2
   11704:	e0bffe15 	stw	r2,-8(fp)
   11708:	e0bffe17 	ldw	r2,-8(fp)
   1170c:	108f0010 	cmplti	r2,r2,15360
   11710:	103ff21e 	bne	r2,zero,116dc <LCD_init+0x3fc>
   11714:	d0e02917 	ldw	r3,-32604(gp)
   11718:	00800a44 	movi	r2,41
   1171c:	18800035 	stwio	r2,0(r3)
   11720:	e037883a 	mov	sp,fp
   11724:	df000017 	ldw	fp,0(sp)
   11728:	dec00104 	addi	sp,sp,4
   1172c:	f800283a 	ret

00011730 <LCD_draw_line>:
   11730:	defff804 	addi	sp,sp,-32
   11734:	dfc00715 	stw	ra,28(sp)
   11738:	df000615 	stw	fp,24(sp)
   1173c:	df000604 	addi	fp,sp,24
   11740:	e13ffc15 	stw	r4,-16(fp)
   11744:	e17ffd15 	stw	r5,-12(fp)
   11748:	e1bffe15 	stw	r6,-8(fp)
   1174c:	e1ffff15 	stw	r7,-4(fp)
   11750:	e0fffd17 	ldw	r3,-12(fp)
   11754:	e0bfff17 	ldw	r2,-4(fp)
   11758:	18800d1e 	bne	r3,r2,11790 <LCD_draw_line+0x60>
   1175c:	e0bffc17 	ldw	r2,-16(fp)
   11760:	113fffcc 	andi	r4,r2,65535
   11764:	2120001c 	xori	r4,r4,32768
   11768:	21200004 	addi	r4,r4,-32768
   1176c:	e0bffe17 	ldw	r2,-8(fp)
   11770:	117fffcc 	andi	r5,r2,65535
   11774:	2960001c 	xori	r5,r5,32768
   11778:	29600004 	addi	r5,r5,-32768
   1177c:	e0bffd17 	ldw	r2,-12(fp)
   11780:	11bfffcc 	andi	r6,r2,65535
   11784:	e1c00317 	ldw	r7,12(fp)
   11788:	0011f280 	call	11f28 <LCD_draw_horiz_line>
   1178c:	00000e06 	br	117c8 <LCD_draw_line+0x98>
   11790:	e0bffc17 	ldw	r2,-16(fp)
   11794:	113fffcc 	andi	r4,r2,65535
   11798:	e0bffd17 	ldw	r2,-12(fp)
   1179c:	117fffcc 	andi	r5,r2,65535
   117a0:	e0bffe17 	ldw	r2,-8(fp)
   117a4:	11bfffcc 	andi	r6,r2,65535
   117a8:	e0bfff17 	ldw	r2,-4(fp)
   117ac:	11ffffcc 	andi	r7,r2,65535
   117b0:	e0800217 	ldw	r2,8(fp)
   117b4:	10bfffcc 	andi	r2,r2,65535
   117b8:	d8800015 	stw	r2,0(sp)
   117bc:	e0800317 	ldw	r2,12(fp)
   117c0:	d8800115 	stw	r2,4(sp)
   117c4:	00121780 	call	12178 <LCD_draw_sloped_line>
   117c8:	e037883a 	mov	sp,fp
   117cc:	dfc00117 	ldw	ra,4(sp)
   117d0:	df000017 	ldw	fp,0(sp)
   117d4:	dec00204 	addi	sp,sp,8
   117d8:	f800283a 	ret

000117dc <LCD_print_string>:
   117dc:	defff704 	addi	sp,sp,-36
   117e0:	dfc00815 	stw	ra,32(sp)
   117e4:	df000715 	stw	fp,28(sp)
   117e8:	df000704 	addi	fp,sp,28
   117ec:	e13ffc15 	stw	r4,-16(fp)
   117f0:	e17ffd15 	stw	r5,-12(fp)
   117f4:	e1bffe15 	stw	r6,-8(fp)
   117f8:	e1ffff15 	stw	r7,-4(fp)
   117fc:	e03ffb15 	stw	zero,-20(fp)
   11800:	e0bffc17 	ldw	r2,-16(fp)
   11804:	e0bffa15 	stw	r2,-24(fp)
   11808:	00003f06 	br	11908 <LCD_print_string+0x12c>
   1180c:	e0bffb17 	ldw	r2,-20(fp)
   11810:	1007883a 	mov	r3,r2
   11814:	e0800217 	ldw	r2,8(fp)
   11818:	1885883a 	add	r2,r3,r2
   1181c:	10800003 	ldbu	r2,0(r2)
   11820:	10803fcc 	andi	r2,r2,255
   11824:	1080201c 	xori	r2,r2,128
   11828:	10bfe004 	addi	r2,r2,-128
   1182c:	10800298 	cmpnei	r2,r2,10
   11830:	1000091e 	bne	r2,zero,11858 <LCD_print_string+0x7c>
   11834:	e0bffa17 	ldw	r2,-24(fp)
   11838:	e0bffc15 	stw	r2,-16(fp)
   1183c:	e0bffd17 	ldw	r2,-12(fp)
   11840:	10800304 	addi	r2,r2,12
   11844:	e0bffd15 	stw	r2,-12(fp)
   11848:	e0bffb17 	ldw	r2,-20(fp)
   1184c:	10800044 	addi	r2,r2,1
   11850:	e0bffb15 	stw	r2,-20(fp)
   11854:	00002c06 	br	11908 <LCD_print_string+0x12c>
   11858:	e0bffb17 	ldw	r2,-20(fp)
   1185c:	108004d8 	cmpnei	r2,r2,19
   11860:	1000151e 	bne	r2,zero,118b8 <LCD_print_string+0xdc>
   11864:	e0bfff17 	ldw	r2,-4(fp)
   11868:	d8800015 	stw	r2,0(sp)
   1186c:	e13ffc17 	ldw	r4,-16(fp)
   11870:	e17ffd17 	ldw	r5,-12(fp)
   11874:	e1bffe17 	ldw	r6,-8(fp)
   11878:	01c00b84 	movi	r7,46
   1187c:	0011a5c0 	call	11a5c <LCD_print_char>
   11880:	e0bffc17 	ldw	r2,-16(fp)
   11884:	10800204 	addi	r2,r2,8
   11888:	e0bffc15 	stw	r2,-16(fp)
   1188c:	e0bfff17 	ldw	r2,-4(fp)
   11890:	d8800015 	stw	r2,0(sp)
   11894:	e13ffc17 	ldw	r4,-16(fp)
   11898:	e17ffd17 	ldw	r5,-12(fp)
   1189c:	e1bffe17 	ldw	r6,-8(fp)
   118a0:	01c00b84 	movi	r7,46
   118a4:	0011a5c0 	call	11a5c <LCD_print_char>
   118a8:	e0bffc17 	ldw	r2,-16(fp)
   118ac:	10800204 	addi	r2,r2,8
   118b0:	e0bffc15 	stw	r2,-16(fp)
   118b4:	00001e06 	br	11930 <LCD_print_string+0x154>
   118b8:	e0bffb17 	ldw	r2,-20(fp)
   118bc:	1007883a 	mov	r3,r2
   118c0:	e0800217 	ldw	r2,8(fp)
   118c4:	1885883a 	add	r2,r3,r2
   118c8:	10800003 	ldbu	r2,0(r2)
   118cc:	11c03fcc 	andi	r7,r2,255
   118d0:	39c0201c 	xori	r7,r7,128
   118d4:	39ffe004 	addi	r7,r7,-128
   118d8:	e0bfff17 	ldw	r2,-4(fp)
   118dc:	d8800015 	stw	r2,0(sp)
   118e0:	e13ffc17 	ldw	r4,-16(fp)
   118e4:	e17ffd17 	ldw	r5,-12(fp)
   118e8:	e1bffe17 	ldw	r6,-8(fp)
   118ec:	0011a5c0 	call	11a5c <LCD_print_char>
   118f0:	e0bffb17 	ldw	r2,-20(fp)
   118f4:	10800044 	addi	r2,r2,1
   118f8:	e0bffb15 	stw	r2,-20(fp)
   118fc:	e0bffc17 	ldw	r2,-16(fp)
   11900:	10800204 	addi	r2,r2,8
   11904:	e0bffc15 	stw	r2,-16(fp)
   11908:	e0bffb17 	ldw	r2,-20(fp)
   1190c:	1007883a 	mov	r3,r2
   11910:	e0800217 	ldw	r2,8(fp)
   11914:	1885883a 	add	r2,r3,r2
   11918:	10800003 	ldbu	r2,0(r2)
   1191c:	10803fcc 	andi	r2,r2,255
   11920:	1080201c 	xori	r2,r2,128
   11924:	10bfe004 	addi	r2,r2,-128
   11928:	1004c03a 	cmpne	r2,r2,zero
   1192c:	103fb71e 	bne	r2,zero,1180c <LCD_print_string+0x30>
   11930:	0005883a 	mov	r2,zero
   11934:	e037883a 	mov	sp,fp
   11938:	dfc00117 	ldw	ra,4(sp)
   1193c:	df000017 	ldw	fp,0(sp)
   11940:	dec00204 	addi	sp,sp,8
   11944:	f800283a 	ret

00011948 <LCD_draw_box>:
   11948:	defff804 	addi	sp,sp,-32
   1194c:	dfc00715 	stw	ra,28(sp)
   11950:	df000615 	stw	fp,24(sp)
   11954:	df000604 	addi	fp,sp,24
   11958:	e13ffc15 	stw	r4,-16(fp)
   1195c:	e17ffd15 	stw	r5,-12(fp)
   11960:	e1bffe15 	stw	r6,-8(fp)
   11964:	e1ffff15 	stw	r7,-4(fp)
   11968:	e0800317 	ldw	r2,12(fp)
   1196c:	1005003a 	cmpeq	r2,r2,zero
   11970:	1000081e 	bne	r2,zero,11994 <LCD_draw_box+0x4c>
   11974:	e0800217 	ldw	r2,8(fp)
   11978:	d8800015 	stw	r2,0(sp)
   1197c:	e13ffc17 	ldw	r4,-16(fp)
   11980:	e17ffd17 	ldw	r5,-12(fp)
   11984:	e1bffe17 	ldw	r6,-8(fp)
   11988:	e1ffff17 	ldw	r7,-4(fp)
   1198c:	0011db00 	call	11db0 <LCD_paint_block>
   11990:	00002c06 	br	11a44 <LCD_draw_box+0xfc>
   11994:	e0bfff17 	ldw	r2,-4(fp)
   11998:	11ffffc4 	addi	r7,r2,-1
   1199c:	00800044 	movi	r2,1
   119a0:	d8800015 	stw	r2,0(sp)
   119a4:	e0800217 	ldw	r2,8(fp)
   119a8:	d8800115 	stw	r2,4(sp)
   119ac:	e13ffc17 	ldw	r4,-16(fp)
   119b0:	e17ffd17 	ldw	r5,-12(fp)
   119b4:	e1bffc17 	ldw	r6,-16(fp)
   119b8:	00117300 	call	11730 <LCD_draw_line>
   119bc:	e0bffe17 	ldw	r2,-8(fp)
   119c0:	113fffc4 	addi	r4,r2,-1
   119c4:	e0bffe17 	ldw	r2,-8(fp)
   119c8:	11bfffc4 	addi	r6,r2,-1
   119cc:	e0bfff17 	ldw	r2,-4(fp)
   119d0:	11ffffc4 	addi	r7,r2,-1
   119d4:	00800044 	movi	r2,1
   119d8:	d8800015 	stw	r2,0(sp)
   119dc:	e0800217 	ldw	r2,8(fp)
   119e0:	d8800115 	stw	r2,4(sp)
   119e4:	e17ffd17 	ldw	r5,-12(fp)
   119e8:	00117300 	call	11730 <LCD_draw_line>
   119ec:	e0bffe17 	ldw	r2,-8(fp)
   119f0:	11bfffc4 	addi	r6,r2,-1
   119f4:	00800044 	movi	r2,1
   119f8:	d8800015 	stw	r2,0(sp)
   119fc:	e0800217 	ldw	r2,8(fp)
   11a00:	d8800115 	stw	r2,4(sp)
   11a04:	e13ffc17 	ldw	r4,-16(fp)
   11a08:	e17ffd17 	ldw	r5,-12(fp)
   11a0c:	e1fffd17 	ldw	r7,-12(fp)
   11a10:	00117300 	call	11730 <LCD_draw_line>
   11a14:	e0bfff17 	ldw	r2,-4(fp)
   11a18:	117fffc4 	addi	r5,r2,-1
   11a1c:	e0bffe17 	ldw	r2,-8(fp)
   11a20:	11bfffc4 	addi	r6,r2,-1
   11a24:	e0bfff17 	ldw	r2,-4(fp)
   11a28:	11ffffc4 	addi	r7,r2,-1
   11a2c:	00800044 	movi	r2,1
   11a30:	d8800015 	stw	r2,0(sp)
   11a34:	e0800217 	ldw	r2,8(fp)
   11a38:	d8800115 	stw	r2,4(sp)
   11a3c:	e13ffc17 	ldw	r4,-16(fp)
   11a40:	00117300 	call	11730 <LCD_draw_line>
   11a44:	0005883a 	mov	r2,zero
   11a48:	e037883a 	mov	sp,fp
   11a4c:	dfc00117 	ldw	ra,4(sp)
   11a50:	df000017 	ldw	fp,0(sp)
   11a54:	dec00204 	addi	sp,sp,8
   11a58:	f800283a 	ret

00011a5c <LCD_print_char>:
   11a5c:	defff704 	addi	sp,sp,-36
   11a60:	dfc00815 	stw	ra,32(sp)
   11a64:	df000715 	stw	fp,28(sp)
   11a68:	df000704 	addi	fp,sp,28
   11a6c:	e13ffc15 	stw	r4,-16(fp)
   11a70:	e17ffd15 	stw	r5,-12(fp)
   11a74:	e1bffe15 	stw	r6,-8(fp)
   11a78:	e1ffff05 	stb	r7,-4(fp)
   11a7c:	e0bfff03 	ldbu	r2,-4(fp)
   11a80:	10bff804 	addi	r2,r2,-32
   11a84:	e0bff945 	stb	r2,-27(fp)
   11a88:	e03ffb15 	stw	zero,-20(fp)
   11a8c:	00002406 	br	11b20 <LCD_print_char+0xc4>
   11a90:	e13ff947 	ldb	r4,-27(fp)
   11a94:	014002c4 	movi	r5,11
   11a98:	00145ac0 	call	145ac <__mulsi3>
   11a9c:	1007883a 	mov	r3,r2
   11aa0:	e0800217 	ldw	r2,8(fp)
   11aa4:	1887883a 	add	r3,r3,r2
   11aa8:	e0bffb17 	ldw	r2,-20(fp)
   11aac:	1885883a 	add	r2,r3,r2
   11ab0:	10800003 	ldbu	r2,0(r2)
   11ab4:	e0bff905 	stb	r2,-28(fp)
   11ab8:	e03ffa15 	stw	zero,-24(fp)
   11abc:	00001206 	br	11b08 <LCD_print_char+0xac>
   11ac0:	e13ff907 	ldb	r4,-28(fp)
   11ac4:	00c02004 	movi	r3,128
   11ac8:	e0bffa17 	ldw	r2,-24(fp)
   11acc:	1885d83a 	sra	r2,r3,r2
   11ad0:	2084703a 	and	r2,r4,r2
   11ad4:	1005003a 	cmpeq	r2,r2,zero
   11ad8:	1000081e 	bne	r2,zero,11afc <LCD_print_char+0xa0>
   11adc:	e0fffc17 	ldw	r3,-16(fp)
   11ae0:	e0bffa17 	ldw	r2,-24(fp)
   11ae4:	1889883a 	add	r4,r3,r2
   11ae8:	e0fffd17 	ldw	r3,-12(fp)
   11aec:	e0bffb17 	ldw	r2,-20(fp)
   11af0:	188b883a 	add	r5,r3,r2
   11af4:	e1bffe17 	ldw	r6,-8(fp)
   11af8:	0011b440 	call	11b44 <LCD_set_pixel>
   11afc:	e0bffa17 	ldw	r2,-24(fp)
   11b00:	10800044 	addi	r2,r2,1
   11b04:	e0bffa15 	stw	r2,-24(fp)
   11b08:	e0bffa17 	ldw	r2,-24(fp)
   11b0c:	10800210 	cmplti	r2,r2,8
   11b10:	103feb1e 	bne	r2,zero,11ac0 <LCD_print_char+0x64>
   11b14:	e0bffb17 	ldw	r2,-20(fp)
   11b18:	10800044 	addi	r2,r2,1
   11b1c:	e0bffb15 	stw	r2,-20(fp)
   11b20:	e0bffb17 	ldw	r2,-20(fp)
   11b24:	108002d0 	cmplti	r2,r2,11
   11b28:	103fd91e 	bne	r2,zero,11a90 <LCD_print_char+0x34>
   11b2c:	0005883a 	mov	r2,zero
   11b30:	e037883a 	mov	sp,fp
   11b34:	dfc00117 	ldw	ra,4(sp)
   11b38:	df000017 	ldw	fp,0(sp)
   11b3c:	dec00204 	addi	sp,sp,8
   11b40:	f800283a 	ret

00011b44 <LCD_set_pixel>:
   11b44:	defffb04 	addi	sp,sp,-20
   11b48:	df000415 	stw	fp,16(sp)
   11b4c:	df000404 	addi	fp,sp,16
   11b50:	e13ffd15 	stw	r4,-12(fp)
   11b54:	e17ffe15 	stw	r5,-8(fp)
   11b58:	e1bfff15 	stw	r6,-4(fp)
   11b5c:	d0e02917 	ldw	r3,-32604(gp)
   11b60:	00800a84 	movi	r2,42
   11b64:	18800035 	stwio	r2,0(r3)
   11b68:	e0bffd17 	ldw	r2,-12(fp)
   11b6c:	10bfc00c 	andi	r2,r2,65280
   11b70:	1007d23a 	srai	r3,r2,8
   11b74:	d0a02917 	ldw	r2,-32604(gp)
   11b78:	10800104 	addi	r2,r2,4
   11b7c:	10c00035 	stwio	r3,0(r2)
   11b80:	e0bffd17 	ldw	r2,-12(fp)
   11b84:	10c03fcc 	andi	r3,r2,255
   11b88:	d0a02917 	ldw	r2,-32604(gp)
   11b8c:	10800104 	addi	r2,r2,4
   11b90:	10c00035 	stwio	r3,0(r2)
   11b94:	e0bffd17 	ldw	r2,-12(fp)
   11b98:	10bfc00c 	andi	r2,r2,65280
   11b9c:	1007d23a 	srai	r3,r2,8
   11ba0:	d0a02917 	ldw	r2,-32604(gp)
   11ba4:	10800104 	addi	r2,r2,4
   11ba8:	10c00035 	stwio	r3,0(r2)
   11bac:	e0bffd17 	ldw	r2,-12(fp)
   11bb0:	10c03fcc 	andi	r3,r2,255
   11bb4:	d0a02917 	ldw	r2,-32604(gp)
   11bb8:	10800104 	addi	r2,r2,4
   11bbc:	10c00035 	stwio	r3,0(r2)
   11bc0:	d0e02917 	ldw	r3,-32604(gp)
   11bc4:	00800ac4 	movi	r2,43
   11bc8:	18800035 	stwio	r2,0(r3)
   11bcc:	e0bffe17 	ldw	r2,-8(fp)
   11bd0:	10bfc00c 	andi	r2,r2,65280
   11bd4:	1007d23a 	srai	r3,r2,8
   11bd8:	d0a02917 	ldw	r2,-32604(gp)
   11bdc:	10800104 	addi	r2,r2,4
   11be0:	10c00035 	stwio	r3,0(r2)
   11be4:	e0bffe17 	ldw	r2,-8(fp)
   11be8:	10c03fcc 	andi	r3,r2,255
   11bec:	d0a02917 	ldw	r2,-32604(gp)
   11bf0:	10800104 	addi	r2,r2,4
   11bf4:	10c00035 	stwio	r3,0(r2)
   11bf8:	e0bffe17 	ldw	r2,-8(fp)
   11bfc:	10bfc00c 	andi	r2,r2,65280
   11c00:	1007d23a 	srai	r3,r2,8
   11c04:	d0a02917 	ldw	r2,-32604(gp)
   11c08:	10800104 	addi	r2,r2,4
   11c0c:	10c00035 	stwio	r3,0(r2)
   11c10:	e0bffe17 	ldw	r2,-8(fp)
   11c14:	10c03fcc 	andi	r3,r2,255
   11c18:	d0a02917 	ldw	r2,-32604(gp)
   11c1c:	10800104 	addi	r2,r2,4
   11c20:	10c00035 	stwio	r3,0(r2)
   11c24:	d0e02917 	ldw	r3,-32604(gp)
   11c28:	00800b04 	movi	r2,44
   11c2c:	18800035 	stwio	r2,0(r3)
   11c30:	e0bfff17 	ldw	r2,-4(fp)
   11c34:	1006d23a 	srli	r3,r2,8
   11c38:	d0a02917 	ldw	r2,-32604(gp)
   11c3c:	10800104 	addi	r2,r2,4
   11c40:	10c00035 	stwio	r3,0(r2)
   11c44:	d0a02917 	ldw	r2,-32604(gp)
   11c48:	10c00104 	addi	r3,r2,4
   11c4c:	e0bfff17 	ldw	r2,-4(fp)
   11c50:	18800035 	stwio	r2,0(r3)
   11c54:	e037883a 	mov	sp,fp
   11c58:	df000017 	ldw	fp,0(sp)
   11c5c:	dec00104 	addi	sp,sp,4
   11c60:	f800283a 	ret

00011c64 <LCD_get_pixel>:
   11c64:	defff904 	addi	sp,sp,-28
   11c68:	df000615 	stw	fp,24(sp)
   11c6c:	df000604 	addi	fp,sp,24
   11c70:	e13ffe15 	stw	r4,-8(fp)
   11c74:	e17fff15 	stw	r5,-4(fp)
   11c78:	d0e02917 	ldw	r3,-32604(gp)
   11c7c:	00800a84 	movi	r2,42
   11c80:	18800035 	stwio	r2,0(r3)
   11c84:	e0bffe17 	ldw	r2,-8(fp)
   11c88:	10bfc00c 	andi	r2,r2,65280
   11c8c:	1007d23a 	srai	r3,r2,8
   11c90:	d0a02917 	ldw	r2,-32604(gp)
   11c94:	10800104 	addi	r2,r2,4
   11c98:	10c00035 	stwio	r3,0(r2)
   11c9c:	e0bffe17 	ldw	r2,-8(fp)
   11ca0:	10c03fcc 	andi	r3,r2,255
   11ca4:	d0a02917 	ldw	r2,-32604(gp)
   11ca8:	10800104 	addi	r2,r2,4
   11cac:	10c00035 	stwio	r3,0(r2)
   11cb0:	e0bffe17 	ldw	r2,-8(fp)
   11cb4:	10bfc00c 	andi	r2,r2,65280
   11cb8:	1007d23a 	srai	r3,r2,8
   11cbc:	d0a02917 	ldw	r2,-32604(gp)
   11cc0:	10800104 	addi	r2,r2,4
   11cc4:	10c00035 	stwio	r3,0(r2)
   11cc8:	e0bffe17 	ldw	r2,-8(fp)
   11ccc:	10c03fcc 	andi	r3,r2,255
   11cd0:	d0a02917 	ldw	r2,-32604(gp)
   11cd4:	10800104 	addi	r2,r2,4
   11cd8:	10c00035 	stwio	r3,0(r2)
   11cdc:	d0e02917 	ldw	r3,-32604(gp)
   11ce0:	00800ac4 	movi	r2,43
   11ce4:	18800035 	stwio	r2,0(r3)
   11ce8:	e0bfff17 	ldw	r2,-4(fp)
   11cec:	10bfc00c 	andi	r2,r2,65280
   11cf0:	1007d23a 	srai	r3,r2,8
   11cf4:	d0a02917 	ldw	r2,-32604(gp)
   11cf8:	10800104 	addi	r2,r2,4
   11cfc:	10c00035 	stwio	r3,0(r2)
   11d00:	e0bfff17 	ldw	r2,-4(fp)
   11d04:	10c03fcc 	andi	r3,r2,255
   11d08:	d0a02917 	ldw	r2,-32604(gp)
   11d0c:	10800104 	addi	r2,r2,4
   11d10:	10c00035 	stwio	r3,0(r2)
   11d14:	e0bfff17 	ldw	r2,-4(fp)
   11d18:	10bfc00c 	andi	r2,r2,65280
   11d1c:	1007d23a 	srai	r3,r2,8
   11d20:	d0a02917 	ldw	r2,-32604(gp)
   11d24:	10800104 	addi	r2,r2,4
   11d28:	10c00035 	stwio	r3,0(r2)
   11d2c:	e0bfff17 	ldw	r2,-4(fp)
   11d30:	10c03fcc 	andi	r3,r2,255
   11d34:	d0a02917 	ldw	r2,-32604(gp)
   11d38:	10800104 	addi	r2,r2,4
   11d3c:	10c00035 	stwio	r3,0(r2)
   11d40:	d0e02917 	ldw	r3,-32604(gp)
   11d44:	00800b84 	movi	r2,46
   11d48:	18800035 	stwio	r2,0(r3)
   11d4c:	d0a02917 	ldw	r2,-32604(gp)
   11d50:	10800104 	addi	r2,r2,4
   11d54:	10800037 	ldwio	r2,0(r2)
   11d58:	e0bffc15 	stw	r2,-16(fp)
   11d5c:	d0a02917 	ldw	r2,-32604(gp)
   11d60:	10800104 	addi	r2,r2,4
   11d64:	10800037 	ldwio	r2,0(r2)
   11d68:	e0bffb15 	stw	r2,-20(fp)
   11d6c:	e0bffb17 	ldw	r2,-20(fp)
   11d70:	e0bffd0d 	sth	r2,-12(fp)
   11d74:	e0bffd0b 	ldhu	r2,-12(fp)
   11d78:	1004923a 	slli	r2,r2,8
   11d7c:	1007883a 	mov	r3,r2
   11d80:	d0a02917 	ldw	r2,-32604(gp)
   11d84:	10800104 	addi	r2,r2,4
   11d88:	10800037 	ldwio	r2,0(r2)
   11d8c:	e0bffa15 	stw	r2,-24(fp)
   11d90:	e0bffa17 	ldw	r2,-24(fp)
   11d94:	1884b03a 	or	r2,r3,r2
   11d98:	e0bffd0d 	sth	r2,-12(fp)
   11d9c:	e0bffd0b 	ldhu	r2,-12(fp)
   11da0:	e037883a 	mov	sp,fp
   11da4:	df000017 	ldw	fp,0(sp)
   11da8:	dec00104 	addi	sp,sp,4
   11dac:	f800283a 	ret

00011db0 <LCD_paint_block>:
   11db0:	defff804 	addi	sp,sp,-32
   11db4:	dfc00715 	stw	ra,28(sp)
   11db8:	df000615 	stw	fp,24(sp)
   11dbc:	df000604 	addi	fp,sp,24
   11dc0:	e13ffc15 	stw	r4,-16(fp)
   11dc4:	e17ffd15 	stw	r5,-12(fp)
   11dc8:	e1bffe15 	stw	r6,-8(fp)
   11dcc:	e1ffff15 	stw	r7,-4(fp)
   11dd0:	e0fffe17 	ldw	r3,-8(fp)
   11dd4:	e0bffc17 	ldw	r2,-16(fp)
   11dd8:	1885c83a 	sub	r2,r3,r2
   11ddc:	1085883a 	add	r2,r2,r2
   11de0:	11000084 	addi	r4,r2,2
   11de4:	e0ffff17 	ldw	r3,-4(fp)
   11de8:	e0bffd17 	ldw	r2,-12(fp)
   11dec:	1885c83a 	sub	r2,r3,r2
   11df0:	11400044 	addi	r5,r2,1
   11df4:	00145ac0 	call	145ac <__mulsi3>
   11df8:	e0bffa15 	stw	r2,-24(fp)
   11dfc:	d0e02917 	ldw	r3,-32604(gp)
   11e00:	00800a84 	movi	r2,42
   11e04:	18800035 	stwio	r2,0(r3)
   11e08:	e0bffc17 	ldw	r2,-16(fp)
   11e0c:	10bfc00c 	andi	r2,r2,65280
   11e10:	1007d23a 	srai	r3,r2,8
   11e14:	d0a02917 	ldw	r2,-32604(gp)
   11e18:	10800104 	addi	r2,r2,4
   11e1c:	10c00035 	stwio	r3,0(r2)
   11e20:	e0bffc17 	ldw	r2,-16(fp)
   11e24:	10c03fcc 	andi	r3,r2,255
   11e28:	d0a02917 	ldw	r2,-32604(gp)
   11e2c:	10800104 	addi	r2,r2,4
   11e30:	10c00035 	stwio	r3,0(r2)
   11e34:	e0bffe17 	ldw	r2,-8(fp)
   11e38:	10bfc00c 	andi	r2,r2,65280
   11e3c:	1007d23a 	srai	r3,r2,8
   11e40:	d0a02917 	ldw	r2,-32604(gp)
   11e44:	10800104 	addi	r2,r2,4
   11e48:	10c00035 	stwio	r3,0(r2)
   11e4c:	e0bffe17 	ldw	r2,-8(fp)
   11e50:	10c03fcc 	andi	r3,r2,255
   11e54:	d0a02917 	ldw	r2,-32604(gp)
   11e58:	10800104 	addi	r2,r2,4
   11e5c:	10c00035 	stwio	r3,0(r2)
   11e60:	d0e02917 	ldw	r3,-32604(gp)
   11e64:	00800ac4 	movi	r2,43
   11e68:	18800035 	stwio	r2,0(r3)
   11e6c:	e0bffd17 	ldw	r2,-12(fp)
   11e70:	10bfc00c 	andi	r2,r2,65280
   11e74:	1007d23a 	srai	r3,r2,8
   11e78:	d0a02917 	ldw	r2,-32604(gp)
   11e7c:	10800104 	addi	r2,r2,4
   11e80:	10c00035 	stwio	r3,0(r2)
   11e84:	e0bffd17 	ldw	r2,-12(fp)
   11e88:	10c03fcc 	andi	r3,r2,255
   11e8c:	d0a02917 	ldw	r2,-32604(gp)
   11e90:	10800104 	addi	r2,r2,4
   11e94:	10c00035 	stwio	r3,0(r2)
   11e98:	e0bfff17 	ldw	r2,-4(fp)
   11e9c:	10bfc00c 	andi	r2,r2,65280
   11ea0:	1007d23a 	srai	r3,r2,8
   11ea4:	d0a02917 	ldw	r2,-32604(gp)
   11ea8:	10800104 	addi	r2,r2,4
   11eac:	10c00035 	stwio	r3,0(r2)
   11eb0:	e0bfff17 	ldw	r2,-4(fp)
   11eb4:	10c03fcc 	andi	r3,r2,255
   11eb8:	d0a02917 	ldw	r2,-32604(gp)
   11ebc:	10800104 	addi	r2,r2,4
   11ec0:	10c00035 	stwio	r3,0(r2)
   11ec4:	d0e02917 	ldw	r3,-32604(gp)
   11ec8:	00800b04 	movi	r2,44
   11ecc:	18800035 	stwio	r2,0(r3)
   11ed0:	e03ffb15 	stw	zero,-20(fp)
   11ed4:	00000c06 	br	11f08 <LCD_paint_block+0x158>
   11ed8:	e0800217 	ldw	r2,8(fp)
   11edc:	1007d23a 	srai	r3,r2,8
   11ee0:	d0a02917 	ldw	r2,-32604(gp)
   11ee4:	10800104 	addi	r2,r2,4
   11ee8:	10c00035 	stwio	r3,0(r2)
   11eec:	d0a02917 	ldw	r2,-32604(gp)
   11ef0:	10c00104 	addi	r3,r2,4
   11ef4:	e0800217 	ldw	r2,8(fp)
   11ef8:	18800035 	stwio	r2,0(r3)
   11efc:	e0bffb17 	ldw	r2,-20(fp)
   11f00:	10800084 	addi	r2,r2,2
   11f04:	e0bffb15 	stw	r2,-20(fp)
   11f08:	e0fffb17 	ldw	r3,-20(fp)
   11f0c:	e0bffa17 	ldw	r2,-24(fp)
   11f10:	18bff136 	bltu	r3,r2,11ed8 <LCD_paint_block+0x128>
   11f14:	e037883a 	mov	sp,fp
   11f18:	dfc00117 	ldw	ra,4(sp)
   11f1c:	df000017 	ldw	fp,0(sp)
   11f20:	dec00204 	addi	sp,sp,8
   11f24:	f800283a 	ret

00011f28 <LCD_draw_horiz_line>:
   11f28:	defff904 	addi	sp,sp,-28
   11f2c:	df000615 	stw	fp,24(sp)
   11f30:	df000604 	addi	fp,sp,24
   11f34:	e1bffe15 	stw	r6,-8(fp)
   11f38:	e1ffff15 	stw	r7,-4(fp)
   11f3c:	e13ffc0d 	sth	r4,-16(fp)
   11f40:	e17ffd0d 	sth	r5,-12(fp)
   11f44:	e0fffd0f 	ldh	r3,-12(fp)
   11f48:	e0bffc0f 	ldh	r2,-16(fp)
   11f4c:	1885c83a 	sub	r2,r3,r2
   11f50:	1085883a 	add	r2,r2,r2
   11f54:	e0bffa15 	stw	r2,-24(fp)
   11f58:	d0e02917 	ldw	r3,-32604(gp)
   11f5c:	00800a84 	movi	r2,42
   11f60:	18800035 	stwio	r2,0(r3)
   11f64:	e0bffc0f 	ldh	r2,-16(fp)
   11f68:	10bfc00c 	andi	r2,r2,65280
   11f6c:	1007d23a 	srai	r3,r2,8
   11f70:	d0a02917 	ldw	r2,-32604(gp)
   11f74:	10800104 	addi	r2,r2,4
   11f78:	10c00035 	stwio	r3,0(r2)
   11f7c:	e0bffc0b 	ldhu	r2,-16(fp)
   11f80:	10bfffcc 	andi	r2,r2,65535
   11f84:	10c03fcc 	andi	r3,r2,255
   11f88:	d0a02917 	ldw	r2,-32604(gp)
   11f8c:	10800104 	addi	r2,r2,4
   11f90:	10c00035 	stwio	r3,0(r2)
   11f94:	e0bffd0f 	ldh	r2,-12(fp)
   11f98:	10bfc00c 	andi	r2,r2,65280
   11f9c:	1007d23a 	srai	r3,r2,8
   11fa0:	d0a02917 	ldw	r2,-32604(gp)
   11fa4:	10800104 	addi	r2,r2,4
   11fa8:	10c00035 	stwio	r3,0(r2)
   11fac:	e0bffd0b 	ldhu	r2,-12(fp)
   11fb0:	10bfffcc 	andi	r2,r2,65535
   11fb4:	10c03fcc 	andi	r3,r2,255
   11fb8:	d0a02917 	ldw	r2,-32604(gp)
   11fbc:	10800104 	addi	r2,r2,4
   11fc0:	10c00035 	stwio	r3,0(r2)
   11fc4:	d0e02917 	ldw	r3,-32604(gp)
   11fc8:	00800ac4 	movi	r2,43
   11fcc:	18800035 	stwio	r2,0(r3)
   11fd0:	e0bffe17 	ldw	r2,-8(fp)
   11fd4:	10bfc00c 	andi	r2,r2,65280
   11fd8:	1007d23a 	srai	r3,r2,8
   11fdc:	d0a02917 	ldw	r2,-32604(gp)
   11fe0:	10800104 	addi	r2,r2,4
   11fe4:	10c00035 	stwio	r3,0(r2)
   11fe8:	e0bffe17 	ldw	r2,-8(fp)
   11fec:	10c03fcc 	andi	r3,r2,255
   11ff0:	d0a02917 	ldw	r2,-32604(gp)
   11ff4:	10800104 	addi	r2,r2,4
   11ff8:	10c00035 	stwio	r3,0(r2)
   11ffc:	e0bffe17 	ldw	r2,-8(fp)
   12000:	10bfc00c 	andi	r2,r2,65280
   12004:	1007d23a 	srai	r3,r2,8
   12008:	d0a02917 	ldw	r2,-32604(gp)
   1200c:	10800104 	addi	r2,r2,4
   12010:	10c00035 	stwio	r3,0(r2)
   12014:	e0bffe17 	ldw	r2,-8(fp)
   12018:	10c03fcc 	andi	r3,r2,255
   1201c:	d0a02917 	ldw	r2,-32604(gp)
   12020:	10800104 	addi	r2,r2,4
   12024:	10c00035 	stwio	r3,0(r2)
   12028:	d0e02917 	ldw	r3,-32604(gp)
   1202c:	00800b04 	movi	r2,44
   12030:	18800035 	stwio	r2,0(r3)
   12034:	e03ffb15 	stw	zero,-20(fp)
   12038:	00000c06 	br	1206c <LCD_draw_horiz_line+0x144>
   1203c:	e0bfff17 	ldw	r2,-4(fp)
   12040:	1007d23a 	srai	r3,r2,8
   12044:	d0a02917 	ldw	r2,-32604(gp)
   12048:	10800104 	addi	r2,r2,4
   1204c:	10c00035 	stwio	r3,0(r2)
   12050:	d0a02917 	ldw	r2,-32604(gp)
   12054:	10c00104 	addi	r3,r2,4
   12058:	e0bfff17 	ldw	r2,-4(fp)
   1205c:	18800035 	stwio	r2,0(r3)
   12060:	e0bffb17 	ldw	r2,-20(fp)
   12064:	10800084 	addi	r2,r2,2
   12068:	e0bffb15 	stw	r2,-20(fp)
   1206c:	e0fffb17 	ldw	r3,-20(fp)
   12070:	e0bffa17 	ldw	r2,-24(fp)
   12074:	18bff136 	bltu	r3,r2,1203c <LCD_draw_horiz_line+0x114>
   12078:	e037883a 	mov	sp,fp
   1207c:	df000017 	ldw	fp,0(sp)
   12080:	dec00104 	addi	sp,sp,4
   12084:	f800283a 	ret

00012088 <LCD_merge_colors>:
   12088:	defffb04 	addi	sp,sp,-20
   1208c:	dfc00415 	stw	ra,16(sp)
   12090:	df000315 	stw	fp,12(sp)
   12094:	df000304 	addi	fp,sp,12
   12098:	e13ffd15 	stw	r4,-12(fp)
   1209c:	e17ffe15 	stw	r5,-8(fp)
   120a0:	e1bfff15 	stw	r6,-4(fp)
   120a4:	e13ffd17 	ldw	r4,-12(fp)
   120a8:	0013a540 	call	13a54 <__floatunsisf>
   120ac:	1009883a 	mov	r4,r2
   120b0:	0150dff4 	movhi	r5,17279
   120b4:	00137d40 	call	137d4 <__divsf3>
   120b8:	1009883a 	mov	r4,r2
   120bc:	01507e34 	movhi	r5,16888
   120c0:	00135f40 	call	135f4 <__mulsf3>
   120c4:	1009883a 	mov	r4,r2
   120c8:	00132cc0 	call	132cc <__fixunssfsi>
   120cc:	e0bffd15 	stw	r2,-12(fp)
   120d0:	e13ffe17 	ldw	r4,-8(fp)
   120d4:	0013a540 	call	13a54 <__floatunsisf>
   120d8:	1009883a 	mov	r4,r2
   120dc:	0150dff4 	movhi	r5,17279
   120e0:	00137d40 	call	137d4 <__divsf3>
   120e4:	1009883a 	mov	r4,r2
   120e8:	01509f34 	movhi	r5,17020
   120ec:	00135f40 	call	135f4 <__mulsf3>
   120f0:	1009883a 	mov	r4,r2
   120f4:	00132cc0 	call	132cc <__fixunssfsi>
   120f8:	e0bffe15 	stw	r2,-8(fp)
   120fc:	e13fff17 	ldw	r4,-4(fp)
   12100:	0013a540 	call	13a54 <__floatunsisf>
   12104:	1009883a 	mov	r4,r2
   12108:	0150dff4 	movhi	r5,17279
   1210c:	00137d40 	call	137d4 <__divsf3>
   12110:	1009883a 	mov	r4,r2
   12114:	01507e34 	movhi	r5,16888
   12118:	00135f40 	call	135f4 <__mulsf3>
   1211c:	1009883a 	mov	r4,r2
   12120:	00132cc0 	call	132cc <__fixunssfsi>
   12124:	e0bfff15 	stw	r2,-4(fp)
   12128:	e0bfff17 	ldw	r2,-4(fp)
   1212c:	108007cc 	andi	r2,r2,31
   12130:	1007883a 	mov	r3,r2
   12134:	e0bffe17 	ldw	r2,-8(fp)
   12138:	1004917a 	slli	r2,r2,5
   1213c:	1081f80c 	andi	r2,r2,2016
   12140:	1884b03a 	or	r2,r3,r2
   12144:	1009883a 	mov	r4,r2
   12148:	e0bffd17 	ldw	r2,-12(fp)
   1214c:	100492fa 	slli	r2,r2,11
   12150:	1007883a 	mov	r3,r2
   12154:	00be0004 	movi	r2,-2048
   12158:	1884703a 	and	r2,r3,r2
   1215c:	2084b03a 	or	r2,r4,r2
   12160:	10bfffcc 	andi	r2,r2,65535
   12164:	e037883a 	mov	sp,fp
   12168:	dfc00117 	ldw	ra,4(sp)
   1216c:	df000017 	ldw	fp,0(sp)
   12170:	dec00204 	addi	sp,sp,8
   12174:	f800283a 	ret

00012178 <LCD_draw_sloped_line>:
   12178:	deffef04 	addi	sp,sp,-68
   1217c:	dfc01015 	stw	ra,64(sp)
   12180:	df000f15 	stw	fp,60(sp)
   12184:	df000f04 	addi	fp,sp,60
   12188:	e0800217 	ldw	r2,8(fp)
   1218c:	e13ffb0d 	sth	r4,-20(fp)
   12190:	e17ffc0d 	sth	r5,-16(fp)
   12194:	e1bffd0d 	sth	r6,-12(fp)
   12198:	e1fffe0d 	sth	r7,-8(fp)
   1219c:	e0bfff0d 	sth	r2,-4(fp)
   121a0:	e0fffd0b 	ldhu	r3,-12(fp)
   121a4:	e0bffb0b 	ldhu	r2,-20(fp)
   121a8:	1885c83a 	sub	r2,r3,r2
   121ac:	e0bffa15 	stw	r2,-24(fp)
   121b0:	e0bffa17 	ldw	r2,-24(fp)
   121b4:	1004403a 	cmpge	r2,r2,zero
   121b8:	1000031e 	bne	r2,zero,121c8 <LCD_draw_sloped_line+0x50>
   121bc:	e0bffa17 	ldw	r2,-24(fp)
   121c0:	0085c83a 	sub	r2,zero,r2
   121c4:	e0bffa15 	stw	r2,-24(fp)
   121c8:	e0fffe0b 	ldhu	r3,-8(fp)
   121cc:	e0bffc0b 	ldhu	r2,-16(fp)
   121d0:	1885c83a 	sub	r2,r3,r2
   121d4:	e0bff915 	stw	r2,-28(fp)
   121d8:	e0bff917 	ldw	r2,-28(fp)
   121dc:	1004403a 	cmpge	r2,r2,zero
   121e0:	1000031e 	bne	r2,zero,121f0 <LCD_draw_sloped_line+0x78>
   121e4:	e0bff917 	ldw	r2,-28(fp)
   121e8:	0085c83a 	sub	r2,zero,r2
   121ec:	e0bff915 	stw	r2,-28(fp)
   121f0:	e0fffb0b 	ldhu	r3,-20(fp)
   121f4:	e0bffd0b 	ldhu	r2,-12(fp)
   121f8:	10c0032e 	bgeu	r2,r3,12208 <LCD_draw_sloped_line+0x90>
   121fc:	00bfffc4 	movi	r2,-1
   12200:	e0bff815 	stw	r2,-32(fp)
   12204:	00000206 	br	12210 <LCD_draw_sloped_line+0x98>
   12208:	00800044 	movi	r2,1
   1220c:	e0bff815 	stw	r2,-32(fp)
   12210:	e0fffc0b 	ldhu	r3,-16(fp)
   12214:	e0bffe0b 	ldhu	r2,-8(fp)
   12218:	10c0032e 	bgeu	r2,r3,12228 <LCD_draw_sloped_line+0xb0>
   1221c:	00bfffc4 	movi	r2,-1
   12220:	e0bff715 	stw	r2,-36(fp)
   12224:	00000206 	br	12230 <LCD_draw_sloped_line+0xb8>
   12228:	00800044 	movi	r2,1
   1222c:	e0bff715 	stw	r2,-36(fp)
   12230:	e0fffa17 	ldw	r3,-24(fp)
   12234:	e0bff917 	ldw	r2,-28(fp)
   12238:	18803416 	blt	r3,r2,1230c <LCD_draw_sloped_line+0x194>
   1223c:	e0bff917 	ldw	r2,-28(fp)
   12240:	1085883a 	add	r2,r2,r2
   12244:	e0bff615 	stw	r2,-40(fp)
   12248:	e0bffa17 	ldw	r2,-24(fp)
   1224c:	1085883a 	add	r2,r2,r2
   12250:	1007883a 	mov	r3,r2
   12254:	e0bff617 	ldw	r2,-40(fp)
   12258:	10c5c83a 	sub	r2,r2,r3
   1225c:	e0bff515 	stw	r2,-44(fp)
   12260:	e0fff617 	ldw	r3,-40(fp)
   12264:	e0bffa17 	ldw	r2,-24(fp)
   12268:	1885c83a 	sub	r2,r3,r2
   1226c:	e0bff415 	stw	r2,-48(fp)
   12270:	00002206 	br	122fc <LCD_draw_sloped_line+0x184>
   12274:	e13ffb0b 	ldhu	r4,-20(fp)
   12278:	e17ffc0b 	ldhu	r5,-16(fp)
   1227c:	e1800317 	ldw	r6,12(fp)
   12280:	0011b440 	call	11b44 <LCD_set_pixel>
   12284:	e0bff417 	ldw	r2,-48(fp)
   12288:	10800050 	cmplti	r2,r2,1
   1228c:	10000f1e 	bne	r2,zero,122cc <LCD_draw_sloped_line+0x154>
   12290:	e0bff817 	ldw	r2,-32(fp)
   12294:	1007883a 	mov	r3,r2
   12298:	e0bffb0b 	ldhu	r2,-20(fp)
   1229c:	10c5883a 	add	r2,r2,r3
   122a0:	e0bffb0d 	sth	r2,-20(fp)
   122a4:	e0bff717 	ldw	r2,-36(fp)
   122a8:	1007883a 	mov	r3,r2
   122ac:	e0bffc0b 	ldhu	r2,-16(fp)
   122b0:	10c5883a 	add	r2,r2,r3
   122b4:	e0bffc0d 	sth	r2,-16(fp)
   122b8:	e0fff417 	ldw	r3,-48(fp)
   122bc:	e0bff517 	ldw	r2,-44(fp)
   122c0:	1885883a 	add	r2,r3,r2
   122c4:	e0bff415 	stw	r2,-48(fp)
   122c8:	00000906 	br	122f0 <LCD_draw_sloped_line+0x178>
   122cc:	e0bff817 	ldw	r2,-32(fp)
   122d0:	1007883a 	mov	r3,r2
   122d4:	e0bffb0b 	ldhu	r2,-20(fp)
   122d8:	10c5883a 	add	r2,r2,r3
   122dc:	e0bffb0d 	sth	r2,-20(fp)
   122e0:	e0fff417 	ldw	r3,-48(fp)
   122e4:	e0bff617 	ldw	r2,-40(fp)
   122e8:	1885883a 	add	r2,r3,r2
   122ec:	e0bff415 	stw	r2,-48(fp)
   122f0:	e0bffa17 	ldw	r2,-24(fp)
   122f4:	10bfffc4 	addi	r2,r2,-1
   122f8:	e0bffa15 	stw	r2,-24(fp)
   122fc:	e0bffa17 	ldw	r2,-24(fp)
   12300:	1004403a 	cmpge	r2,r2,zero
   12304:	103fdb1e 	bne	r2,zero,12274 <LCD_draw_sloped_line+0xfc>
   12308:	00003306 	br	123d8 <LCD_draw_sloped_line+0x260>
   1230c:	e0bffa17 	ldw	r2,-24(fp)
   12310:	1085883a 	add	r2,r2,r2
   12314:	e0bff315 	stw	r2,-52(fp)
   12318:	e0bff917 	ldw	r2,-28(fp)
   1231c:	1085883a 	add	r2,r2,r2
   12320:	1007883a 	mov	r3,r2
   12324:	e0bff317 	ldw	r2,-52(fp)
   12328:	10c5c83a 	sub	r2,r2,r3
   1232c:	e0bff215 	stw	r2,-56(fp)
   12330:	e0fff317 	ldw	r3,-52(fp)
   12334:	e0bff917 	ldw	r2,-28(fp)
   12338:	1885c83a 	sub	r2,r3,r2
   1233c:	e0bff115 	stw	r2,-60(fp)
   12340:	00002206 	br	123cc <LCD_draw_sloped_line+0x254>
   12344:	e13ffb0b 	ldhu	r4,-20(fp)
   12348:	e17ffc0b 	ldhu	r5,-16(fp)
   1234c:	e1800317 	ldw	r6,12(fp)
   12350:	0011b440 	call	11b44 <LCD_set_pixel>
   12354:	e0bff117 	ldw	r2,-60(fp)
   12358:	10800050 	cmplti	r2,r2,1
   1235c:	10000f1e 	bne	r2,zero,1239c <LCD_draw_sloped_line+0x224>
   12360:	e0bff817 	ldw	r2,-32(fp)
   12364:	1007883a 	mov	r3,r2
   12368:	e0bffb0b 	ldhu	r2,-20(fp)
   1236c:	10c5883a 	add	r2,r2,r3
   12370:	e0bffb0d 	sth	r2,-20(fp)
   12374:	e0bff717 	ldw	r2,-36(fp)
   12378:	1007883a 	mov	r3,r2
   1237c:	e0bffc0b 	ldhu	r2,-16(fp)
   12380:	10c5883a 	add	r2,r2,r3
   12384:	e0bffc0d 	sth	r2,-16(fp)
   12388:	e0fff117 	ldw	r3,-60(fp)
   1238c:	e0bff217 	ldw	r2,-56(fp)
   12390:	1885883a 	add	r2,r3,r2
   12394:	e0bff115 	stw	r2,-60(fp)
   12398:	00000906 	br	123c0 <LCD_draw_sloped_line+0x248>
   1239c:	e0bff717 	ldw	r2,-36(fp)
   123a0:	1007883a 	mov	r3,r2
   123a4:	e0bffc0b 	ldhu	r2,-16(fp)
   123a8:	10c5883a 	add	r2,r2,r3
   123ac:	e0bffc0d 	sth	r2,-16(fp)
   123b0:	e0fff117 	ldw	r3,-60(fp)
   123b4:	e0bff317 	ldw	r2,-52(fp)
   123b8:	1885883a 	add	r2,r3,r2
   123bc:	e0bff115 	stw	r2,-60(fp)
   123c0:	e0bff917 	ldw	r2,-28(fp)
   123c4:	10bfffc4 	addi	r2,r2,-1
   123c8:	e0bff915 	stw	r2,-28(fp)
   123cc:	e0bff917 	ldw	r2,-28(fp)
   123d0:	1004403a 	cmpge	r2,r2,zero
   123d4:	103fdb1e 	bne	r2,zero,12344 <LCD_draw_sloped_line+0x1cc>
   123d8:	e037883a 	mov	sp,fp
   123dc:	dfc00117 	ldw	ra,4(sp)
   123e0:	df000017 	ldw	fp,0(sp)
   123e4:	dec00204 	addi	sp,sp,8
   123e8:	f800283a 	ret

000123ec <LCD_draw_circle>:
   123ec:	defff304 	addi	sp,sp,-52
   123f0:	dfc00c15 	stw	ra,48(sp)
   123f4:	df000b15 	stw	fp,44(sp)
   123f8:	df000b04 	addi	fp,sp,44
   123fc:	e13ffa15 	stw	r4,-24(fp)
   12400:	e17ffb15 	stw	r5,-20(fp)
   12404:	e1bffc15 	stw	r6,-16(fp)
   12408:	e1fffd15 	stw	r7,-12(fp)
   1240c:	e0800217 	ldw	r2,8(fp)
   12410:	e0bffe05 	stb	r2,-8(fp)
   12414:	e03ff915 	stw	zero,-28(fp)
   12418:	e0bffc17 	ldw	r2,-16(fp)
   1241c:	e0bff815 	stw	r2,-32(fp)
   12420:	e0bffc17 	ldw	r2,-16(fp)
   12424:	1085883a 	add	r2,r2,r2
   12428:	1085883a 	add	r2,r2,r2
   1242c:	1007883a 	mov	r3,r2
   12430:	00800144 	movi	r2,5
   12434:	10c5c83a 	sub	r2,r2,r3
   12438:	e0bfff15 	stw	r2,-4(fp)
   1243c:	e0ffff17 	ldw	r3,-4(fp)
   12440:	1804403a 	cmpge	r2,r3,zero
   12444:	1000031e 	bne	r2,zero,12454 <LCD_draw_circle+0x68>
   12448:	e0bfff17 	ldw	r2,-4(fp)
   1244c:	108000c4 	addi	r2,r2,3
   12450:	e0bfff15 	stw	r2,-4(fp)
   12454:	e0ffff17 	ldw	r3,-4(fp)
   12458:	1805d0ba 	srai	r2,r3,2
   1245c:	e0bff715 	stw	r2,-36(fp)
   12460:	e0fffe07 	ldb	r3,-8(fp)
   12464:	e0bffd17 	ldw	r2,-12(fp)
   12468:	d8800015 	stw	r2,0(sp)
   1246c:	d8c00115 	stw	r3,4(sp)
   12470:	e13ffa17 	ldw	r4,-24(fp)
   12474:	e17ffb17 	ldw	r5,-20(fp)
   12478:	e1bff917 	ldw	r6,-28(fp)
   1247c:	e1fff817 	ldw	r7,-32(fp)
   12480:	00125340 	call	12534 <LCD_circle_points>
   12484:	00002306 	br	12514 <LCD_draw_circle+0x128>
   12488:	e0bff917 	ldw	r2,-28(fp)
   1248c:	10800044 	addi	r2,r2,1
   12490:	e0bff915 	stw	r2,-28(fp)
   12494:	e0bff717 	ldw	r2,-36(fp)
   12498:	1004403a 	cmpge	r2,r2,zero
   1249c:	1000081e 	bne	r2,zero,124c0 <LCD_draw_circle+0xd4>
   124a0:	e0bff917 	ldw	r2,-28(fp)
   124a4:	1085883a 	add	r2,r2,r2
   124a8:	1007883a 	mov	r3,r2
   124ac:	e0bff717 	ldw	r2,-36(fp)
   124b0:	1885883a 	add	r2,r3,r2
   124b4:	10800044 	addi	r2,r2,1
   124b8:	e0bff715 	stw	r2,-36(fp)
   124bc:	00000c06 	br	124f0 <LCD_draw_circle+0x104>
   124c0:	e0bff817 	ldw	r2,-32(fp)
   124c4:	10bfffc4 	addi	r2,r2,-1
   124c8:	e0bff815 	stw	r2,-32(fp)
   124cc:	e0fff917 	ldw	r3,-28(fp)
   124d0:	e0bff817 	ldw	r2,-32(fp)
   124d4:	1885c83a 	sub	r2,r3,r2
   124d8:	1085883a 	add	r2,r2,r2
   124dc:	1007883a 	mov	r3,r2
   124e0:	e0bff717 	ldw	r2,-36(fp)
   124e4:	1885883a 	add	r2,r3,r2
   124e8:	10800044 	addi	r2,r2,1
   124ec:	e0bff715 	stw	r2,-36(fp)
   124f0:	e0fffe07 	ldb	r3,-8(fp)
   124f4:	e0bffd17 	ldw	r2,-12(fp)
   124f8:	d8800015 	stw	r2,0(sp)
   124fc:	d8c00115 	stw	r3,4(sp)
   12500:	e13ffa17 	ldw	r4,-24(fp)
   12504:	e17ffb17 	ldw	r5,-20(fp)
   12508:	e1bff917 	ldw	r6,-28(fp)
   1250c:	e1fff817 	ldw	r7,-32(fp)
   12510:	00125340 	call	12534 <LCD_circle_points>
   12514:	e0fff917 	ldw	r3,-28(fp)
   12518:	e0bff817 	ldw	r2,-32(fp)
   1251c:	18bfda16 	blt	r3,r2,12488 <LCD_draw_circle+0x9c>
   12520:	e037883a 	mov	sp,fp
   12524:	dfc00117 	ldw	ra,4(sp)
   12528:	df000017 	ldw	fp,0(sp)
   1252c:	dec00204 	addi	sp,sp,8
   12530:	f800283a 	ret

00012534 <LCD_circle_points>:
   12534:	defff704 	addi	sp,sp,-36
   12538:	dfc00815 	stw	ra,32(sp)
   1253c:	df000715 	stw	fp,28(sp)
   12540:	df000704 	addi	fp,sp,28
   12544:	e13ffb15 	stw	r4,-20(fp)
   12548:	e17ffc15 	stw	r5,-16(fp)
   1254c:	e1bffd15 	stw	r6,-12(fp)
   12550:	e1fffe15 	stw	r7,-8(fp)
   12554:	e0800317 	ldw	r2,12(fp)
   12558:	e0bfff05 	stb	r2,-4(fp)
   1255c:	e0bffd17 	ldw	r2,-12(fp)
   12560:	1004c03a 	cmpne	r2,r2,zero
   12564:	10002a1e 	bne	r2,zero,12610 <LCD_circle_points+0xdc>
   12568:	e0fffc17 	ldw	r3,-16(fp)
   1256c:	e0bffe17 	ldw	r2,-8(fp)
   12570:	188b883a 	add	r5,r3,r2
   12574:	e1800217 	ldw	r6,8(fp)
   12578:	e13ffb17 	ldw	r4,-20(fp)
   1257c:	0011b440 	call	11b44 <LCD_set_pixel>
   12580:	e0fffc17 	ldw	r3,-16(fp)
   12584:	e0bffe17 	ldw	r2,-8(fp)
   12588:	188bc83a 	sub	r5,r3,r2
   1258c:	e1800217 	ldw	r6,8(fp)
   12590:	e13ffb17 	ldw	r4,-20(fp)
   12594:	0011b440 	call	11b44 <LCD_set_pixel>
   12598:	e0bfff07 	ldb	r2,-4(fp)
   1259c:	1005003a 	cmpeq	r2,r2,zero
   125a0:	10000e1e 	bne	r2,zero,125dc <LCD_circle_points+0xa8>
   125a4:	e0fffb17 	ldw	r3,-20(fp)
   125a8:	e0bffe17 	ldw	r2,-8(fp)
   125ac:	1889c83a 	sub	r4,r3,r2
   125b0:	e0fffb17 	ldw	r3,-20(fp)
   125b4:	e0bffe17 	ldw	r2,-8(fp)
   125b8:	188d883a 	add	r6,r3,r2
   125bc:	00800044 	movi	r2,1
   125c0:	d8800015 	stw	r2,0(sp)
   125c4:	e0800217 	ldw	r2,8(fp)
   125c8:	d8800115 	stw	r2,4(sp)
   125cc:	e17ffc17 	ldw	r5,-16(fp)
   125d0:	e1fffc17 	ldw	r7,-16(fp)
   125d4:	00117300 	call	11730 <LCD_draw_line>
   125d8:	0000e206 	br	12964 <LCD_circle_points+0x430>
   125dc:	e0fffb17 	ldw	r3,-20(fp)
   125e0:	e0bffe17 	ldw	r2,-8(fp)
   125e4:	1889883a 	add	r4,r3,r2
   125e8:	e1800217 	ldw	r6,8(fp)
   125ec:	e17ffc17 	ldw	r5,-16(fp)
   125f0:	0011b440 	call	11b44 <LCD_set_pixel>
   125f4:	e0fffb17 	ldw	r3,-20(fp)
   125f8:	e0bffe17 	ldw	r2,-8(fp)
   125fc:	1889c83a 	sub	r4,r3,r2
   12600:	e1800217 	ldw	r6,8(fp)
   12604:	e17ffc17 	ldw	r5,-16(fp)
   12608:	0011b440 	call	11b44 <LCD_set_pixel>
   1260c:	0000d506 	br	12964 <LCD_circle_points+0x430>
   12610:	e0fffd17 	ldw	r3,-12(fp)
   12614:	e0bffe17 	ldw	r2,-8(fp)
   12618:	1880471e 	bne	r3,r2,12738 <LCD_circle_points+0x204>
   1261c:	e0bfff07 	ldb	r2,-4(fp)
   12620:	1005003a 	cmpeq	r2,r2,zero
   12624:	1000231e 	bne	r2,zero,126b4 <LCD_circle_points+0x180>
   12628:	e0fffb17 	ldw	r3,-20(fp)
   1262c:	e0bffd17 	ldw	r2,-12(fp)
   12630:	1889c83a 	sub	r4,r3,r2
   12634:	e0fffc17 	ldw	r3,-16(fp)
   12638:	e0bffe17 	ldw	r2,-8(fp)
   1263c:	188b883a 	add	r5,r3,r2
   12640:	e0fffb17 	ldw	r3,-20(fp)
   12644:	e0bffd17 	ldw	r2,-12(fp)
   12648:	188d883a 	add	r6,r3,r2
   1264c:	e0fffc17 	ldw	r3,-16(fp)
   12650:	e0bffe17 	ldw	r2,-8(fp)
   12654:	188f883a 	add	r7,r3,r2
   12658:	00800044 	movi	r2,1
   1265c:	d8800015 	stw	r2,0(sp)
   12660:	e0800217 	ldw	r2,8(fp)
   12664:	d8800115 	stw	r2,4(sp)
   12668:	00117300 	call	11730 <LCD_draw_line>
   1266c:	e0fffb17 	ldw	r3,-20(fp)
   12670:	e0bffd17 	ldw	r2,-12(fp)
   12674:	1889c83a 	sub	r4,r3,r2
   12678:	e0fffc17 	ldw	r3,-16(fp)
   1267c:	e0bffe17 	ldw	r2,-8(fp)
   12680:	188bc83a 	sub	r5,r3,r2
   12684:	e0fffb17 	ldw	r3,-20(fp)
   12688:	e0bffd17 	ldw	r2,-12(fp)
   1268c:	188d883a 	add	r6,r3,r2
   12690:	e0fffc17 	ldw	r3,-16(fp)
   12694:	e0bffe17 	ldw	r2,-8(fp)
   12698:	188fc83a 	sub	r7,r3,r2
   1269c:	00800044 	movi	r2,1
   126a0:	d8800015 	stw	r2,0(sp)
   126a4:	e0800217 	ldw	r2,8(fp)
   126a8:	d8800115 	stw	r2,4(sp)
   126ac:	00117300 	call	11730 <LCD_draw_line>
   126b0:	0000ac06 	br	12964 <LCD_circle_points+0x430>
   126b4:	e0fffb17 	ldw	r3,-20(fp)
   126b8:	e0bffd17 	ldw	r2,-12(fp)
   126bc:	1889883a 	add	r4,r3,r2
   126c0:	e0fffc17 	ldw	r3,-16(fp)
   126c4:	e0bffe17 	ldw	r2,-8(fp)
   126c8:	188b883a 	add	r5,r3,r2
   126cc:	e1800217 	ldw	r6,8(fp)
   126d0:	0011b440 	call	11b44 <LCD_set_pixel>
   126d4:	e0fffb17 	ldw	r3,-20(fp)
   126d8:	e0bffd17 	ldw	r2,-12(fp)
   126dc:	1889c83a 	sub	r4,r3,r2
   126e0:	e0fffc17 	ldw	r3,-16(fp)
   126e4:	e0bffe17 	ldw	r2,-8(fp)
   126e8:	188b883a 	add	r5,r3,r2
   126ec:	e1800217 	ldw	r6,8(fp)
   126f0:	0011b440 	call	11b44 <LCD_set_pixel>
   126f4:	e0fffb17 	ldw	r3,-20(fp)
   126f8:	e0bffd17 	ldw	r2,-12(fp)
   126fc:	1889883a 	add	r4,r3,r2
   12700:	e0fffc17 	ldw	r3,-16(fp)
   12704:	e0bffe17 	ldw	r2,-8(fp)
   12708:	188bc83a 	sub	r5,r3,r2
   1270c:	e1800217 	ldw	r6,8(fp)
   12710:	0011b440 	call	11b44 <LCD_set_pixel>
   12714:	e0fffb17 	ldw	r3,-20(fp)
   12718:	e0bffd17 	ldw	r2,-12(fp)
   1271c:	1889c83a 	sub	r4,r3,r2
   12720:	e0fffc17 	ldw	r3,-16(fp)
   12724:	e0bffe17 	ldw	r2,-8(fp)
   12728:	188bc83a 	sub	r5,r3,r2
   1272c:	e1800217 	ldw	r6,8(fp)
   12730:	0011b440 	call	11b44 <LCD_set_pixel>
   12734:	00008b06 	br	12964 <LCD_circle_points+0x430>
   12738:	e0fffd17 	ldw	r3,-12(fp)
   1273c:	e0bffe17 	ldw	r2,-8(fp)
   12740:	1880880e 	bge	r3,r2,12964 <LCD_circle_points+0x430>
   12744:	e0bfff07 	ldb	r2,-4(fp)
   12748:	1005003a 	cmpeq	r2,r2,zero
   1274c:	1000451e 	bne	r2,zero,12864 <LCD_circle_points+0x330>
   12750:	e0fffb17 	ldw	r3,-20(fp)
   12754:	e0bffd17 	ldw	r2,-12(fp)
   12758:	1889c83a 	sub	r4,r3,r2
   1275c:	e0fffc17 	ldw	r3,-16(fp)
   12760:	e0bffe17 	ldw	r2,-8(fp)
   12764:	188b883a 	add	r5,r3,r2
   12768:	e0fffb17 	ldw	r3,-20(fp)
   1276c:	e0bffd17 	ldw	r2,-12(fp)
   12770:	188d883a 	add	r6,r3,r2
   12774:	e0fffc17 	ldw	r3,-16(fp)
   12778:	e0bffe17 	ldw	r2,-8(fp)
   1277c:	188f883a 	add	r7,r3,r2
   12780:	00800044 	movi	r2,1
   12784:	d8800015 	stw	r2,0(sp)
   12788:	e0800217 	ldw	r2,8(fp)
   1278c:	d8800115 	stw	r2,4(sp)
   12790:	00117300 	call	11730 <LCD_draw_line>
   12794:	e0fffb17 	ldw	r3,-20(fp)
   12798:	e0bffe17 	ldw	r2,-8(fp)
   1279c:	1889c83a 	sub	r4,r3,r2
   127a0:	e0fffc17 	ldw	r3,-16(fp)
   127a4:	e0bffd17 	ldw	r2,-12(fp)
   127a8:	188b883a 	add	r5,r3,r2
   127ac:	e0fffb17 	ldw	r3,-20(fp)
   127b0:	e0bffe17 	ldw	r2,-8(fp)
   127b4:	188d883a 	add	r6,r3,r2
   127b8:	e0fffc17 	ldw	r3,-16(fp)
   127bc:	e0bffd17 	ldw	r2,-12(fp)
   127c0:	188f883a 	add	r7,r3,r2
   127c4:	00800044 	movi	r2,1
   127c8:	d8800015 	stw	r2,0(sp)
   127cc:	e0800217 	ldw	r2,8(fp)
   127d0:	d8800115 	stw	r2,4(sp)
   127d4:	00117300 	call	11730 <LCD_draw_line>
   127d8:	e0fffb17 	ldw	r3,-20(fp)
   127dc:	e0bffe17 	ldw	r2,-8(fp)
   127e0:	1889c83a 	sub	r4,r3,r2
   127e4:	e0fffc17 	ldw	r3,-16(fp)
   127e8:	e0bffd17 	ldw	r2,-12(fp)
   127ec:	188bc83a 	sub	r5,r3,r2
   127f0:	e0fffb17 	ldw	r3,-20(fp)
   127f4:	e0bffe17 	ldw	r2,-8(fp)
   127f8:	188d883a 	add	r6,r3,r2
   127fc:	e0fffc17 	ldw	r3,-16(fp)
   12800:	e0bffd17 	ldw	r2,-12(fp)
   12804:	188fc83a 	sub	r7,r3,r2
   12808:	00800044 	movi	r2,1
   1280c:	d8800015 	stw	r2,0(sp)
   12810:	e0800217 	ldw	r2,8(fp)
   12814:	d8800115 	stw	r2,4(sp)
   12818:	00117300 	call	11730 <LCD_draw_line>
   1281c:	e0fffb17 	ldw	r3,-20(fp)
   12820:	e0bffd17 	ldw	r2,-12(fp)
   12824:	1889c83a 	sub	r4,r3,r2
   12828:	e0fffc17 	ldw	r3,-16(fp)
   1282c:	e0bffe17 	ldw	r2,-8(fp)
   12830:	188bc83a 	sub	r5,r3,r2
   12834:	e0fffb17 	ldw	r3,-20(fp)
   12838:	e0bffd17 	ldw	r2,-12(fp)
   1283c:	188d883a 	add	r6,r3,r2
   12840:	e0fffc17 	ldw	r3,-16(fp)
   12844:	e0bffe17 	ldw	r2,-8(fp)
   12848:	188fc83a 	sub	r7,r3,r2
   1284c:	00800044 	movi	r2,1
   12850:	d8800015 	stw	r2,0(sp)
   12854:	e0800217 	ldw	r2,8(fp)
   12858:	d8800115 	stw	r2,4(sp)
   1285c:	00117300 	call	11730 <LCD_draw_line>
   12860:	00004006 	br	12964 <LCD_circle_points+0x430>
   12864:	e0fffb17 	ldw	r3,-20(fp)
   12868:	e0bffd17 	ldw	r2,-12(fp)
   1286c:	1889883a 	add	r4,r3,r2
   12870:	e0fffc17 	ldw	r3,-16(fp)
   12874:	e0bffe17 	ldw	r2,-8(fp)
   12878:	188b883a 	add	r5,r3,r2
   1287c:	e1800217 	ldw	r6,8(fp)
   12880:	0011b440 	call	11b44 <LCD_set_pixel>
   12884:	e0fffb17 	ldw	r3,-20(fp)
   12888:	e0bffd17 	ldw	r2,-12(fp)
   1288c:	1889c83a 	sub	r4,r3,r2
   12890:	e0fffc17 	ldw	r3,-16(fp)
   12894:	e0bffe17 	ldw	r2,-8(fp)
   12898:	188b883a 	add	r5,r3,r2
   1289c:	e1800217 	ldw	r6,8(fp)
   128a0:	0011b440 	call	11b44 <LCD_set_pixel>
   128a4:	e0fffb17 	ldw	r3,-20(fp)
   128a8:	e0bffd17 	ldw	r2,-12(fp)
   128ac:	1889883a 	add	r4,r3,r2
   128b0:	e0fffc17 	ldw	r3,-16(fp)
   128b4:	e0bffe17 	ldw	r2,-8(fp)
   128b8:	188bc83a 	sub	r5,r3,r2
   128bc:	e1800217 	ldw	r6,8(fp)
   128c0:	0011b440 	call	11b44 <LCD_set_pixel>
   128c4:	e0fffb17 	ldw	r3,-20(fp)
   128c8:	e0bffd17 	ldw	r2,-12(fp)
   128cc:	1889c83a 	sub	r4,r3,r2
   128d0:	e0fffc17 	ldw	r3,-16(fp)
   128d4:	e0bffe17 	ldw	r2,-8(fp)
   128d8:	188bc83a 	sub	r5,r3,r2
   128dc:	e1800217 	ldw	r6,8(fp)
   128e0:	0011b440 	call	11b44 <LCD_set_pixel>
   128e4:	e0fffb17 	ldw	r3,-20(fp)
   128e8:	e0bffe17 	ldw	r2,-8(fp)
   128ec:	1889883a 	add	r4,r3,r2
   128f0:	e0fffc17 	ldw	r3,-16(fp)
   128f4:	e0bffd17 	ldw	r2,-12(fp)
   128f8:	188b883a 	add	r5,r3,r2
   128fc:	e1800217 	ldw	r6,8(fp)
   12900:	0011b440 	call	11b44 <LCD_set_pixel>
   12904:	e0fffb17 	ldw	r3,-20(fp)
   12908:	e0bffe17 	ldw	r2,-8(fp)
   1290c:	1889c83a 	sub	r4,r3,r2
   12910:	e0fffc17 	ldw	r3,-16(fp)
   12914:	e0bffd17 	ldw	r2,-12(fp)
   12918:	188b883a 	add	r5,r3,r2
   1291c:	e1800217 	ldw	r6,8(fp)
   12920:	0011b440 	call	11b44 <LCD_set_pixel>
   12924:	e0fffb17 	ldw	r3,-20(fp)
   12928:	e0bffe17 	ldw	r2,-8(fp)
   1292c:	1889883a 	add	r4,r3,r2
   12930:	e0fffc17 	ldw	r3,-16(fp)
   12934:	e0bffd17 	ldw	r2,-12(fp)
   12938:	188bc83a 	sub	r5,r3,r2
   1293c:	e1800217 	ldw	r6,8(fp)
   12940:	0011b440 	call	11b44 <LCD_set_pixel>
   12944:	e0fffb17 	ldw	r3,-20(fp)
   12948:	e0bffe17 	ldw	r2,-8(fp)
   1294c:	1889c83a 	sub	r4,r3,r2
   12950:	e0fffc17 	ldw	r3,-16(fp)
   12954:	e0bffd17 	ldw	r2,-12(fp)
   12958:	188bc83a 	sub	r5,r3,r2
   1295c:	e1800217 	ldw	r6,8(fp)
   12960:	0011b440 	call	11b44 <LCD_set_pixel>
   12964:	e037883a 	mov	sp,fp
   12968:	dfc00117 	ldw	ra,4(sp)
   1296c:	df000017 	ldw	fp,0(sp)
   12970:	dec00204 	addi	sp,sp,8
   12974:	f800283a 	ret

00012978 <LCD_draw_round_corner_box>:
   12978:	deffec04 	addi	sp,sp,-80
   1297c:	dfc01315 	stw	ra,76(sp)
   12980:	df001215 	stw	fp,72(sp)
   12984:	df001204 	addi	fp,sp,72
   12988:	e13ffb15 	stw	r4,-20(fp)
   1298c:	e17ffc15 	stw	r5,-16(fp)
   12990:	e1bffd15 	stw	r6,-12(fp)
   12994:	e1fffe15 	stw	r7,-8(fp)
   12998:	e0fffb17 	ldw	r3,-20(fp)
   1299c:	e0bffd17 	ldw	r2,-12(fp)
   129a0:	10c0060e 	bge	r2,r3,129bc <LCD_draw_round_corner_box+0x44>
   129a4:	e0bffd17 	ldw	r2,-12(fp)
   129a8:	e0bff615 	stw	r2,-40(fp)
   129ac:	e0bffb17 	ldw	r2,-20(fp)
   129b0:	e0bffd15 	stw	r2,-12(fp)
   129b4:	e0bff617 	ldw	r2,-40(fp)
   129b8:	e0bffb15 	stw	r2,-20(fp)
   129bc:	e0fffc17 	ldw	r3,-16(fp)
   129c0:	e0bffe17 	ldw	r2,-8(fp)
   129c4:	10c0060e 	bge	r2,r3,129e0 <LCD_draw_round_corner_box+0x68>
   129c8:	e0bffe17 	ldw	r2,-8(fp)
   129cc:	e0bff615 	stw	r2,-40(fp)
   129d0:	e0bffc17 	ldw	r2,-16(fp)
   129d4:	e0bffe15 	stw	r2,-8(fp)
   129d8:	e0bff617 	ldw	r2,-40(fp)
   129dc:	e0bffc15 	stw	r2,-16(fp)
   129e0:	e0fffd17 	ldw	r3,-12(fp)
   129e4:	e0bffb17 	ldw	r2,-20(fp)
   129e8:	1885c83a 	sub	r2,r3,r2
   129ec:	e0bff515 	stw	r2,-44(fp)
   129f0:	e0fffe17 	ldw	r3,-8(fp)
   129f4:	e0bffc17 	ldw	r2,-16(fp)
   129f8:	1885c83a 	sub	r2,r3,r2
   129fc:	e0bff415 	stw	r2,-48(fp)
   12a00:	e0c00217 	ldw	r3,8(fp)
   12a04:	e0bff517 	ldw	r2,-44(fp)
   12a08:	1004d07a 	srli	r2,r2,1
   12a0c:	10c0032e 	bgeu	r2,r3,12a1c <LCD_draw_round_corner_box+0xa4>
   12a10:	e0bff517 	ldw	r2,-44(fp)
   12a14:	1004d07a 	srli	r2,r2,1
   12a18:	e0800215 	stw	r2,8(fp)
   12a1c:	e0800217 	ldw	r2,8(fp)
   12a20:	e0fff417 	ldw	r3,-48(fp)
   12a24:	1806d07a 	srli	r3,r3,1
   12a28:	1880032e 	bgeu	r3,r2,12a38 <LCD_draw_round_corner_box+0xc0>
   12a2c:	e0bff417 	ldw	r2,-48(fp)
   12a30:	1004d07a 	srli	r2,r2,1
   12a34:	e0800215 	stw	r2,8(fp)
   12a38:	e0800217 	ldw	r2,8(fp)
   12a3c:	1085883a 	add	r2,r2,r2
   12a40:	e0bff715 	stw	r2,-36(fp)
   12a44:	e0fff717 	ldw	r3,-36(fp)
   12a48:	e0bff517 	ldw	r2,-44(fp)
   12a4c:	10c5c83a 	sub	r2,r2,r3
   12a50:	e0bff315 	stw	r2,-52(fp)
   12a54:	e0fff717 	ldw	r3,-36(fp)
   12a58:	e0bff417 	ldw	r2,-48(fp)
   12a5c:	10c5c83a 	sub	r2,r2,r3
   12a60:	e0bff215 	stw	r2,-56(fp)
   12a64:	e03ffa15 	stw	zero,-24(fp)
   12a68:	e0800217 	ldw	r2,8(fp)
   12a6c:	e0bff915 	stw	r2,-28(fp)
   12a70:	e0800217 	ldw	r2,8(fp)
   12a74:	1085883a 	add	r2,r2,r2
   12a78:	1085883a 	add	r2,r2,r2
   12a7c:	1007883a 	mov	r3,r2
   12a80:	00800144 	movi	r2,5
   12a84:	10c5c83a 	sub	r2,r2,r3
   12a88:	e0bfff15 	stw	r2,-4(fp)
   12a8c:	e0ffff17 	ldw	r3,-4(fp)
   12a90:	1804403a 	cmpge	r2,r3,zero
   12a94:	1000031e 	bne	r2,zero,12aa4 <LCD_draw_round_corner_box+0x12c>
   12a98:	e0bfff17 	ldw	r2,-4(fp)
   12a9c:	108000c4 	addi	r2,r2,3
   12aa0:	e0bfff15 	stw	r2,-4(fp)
   12aa4:	e0ffff17 	ldw	r3,-4(fp)
   12aa8:	1805d0ba 	srai	r2,r3,2
   12aac:	e0bff815 	stw	r2,-32(fp)
   12ab0:	e0fffb17 	ldw	r3,-20(fp)
   12ab4:	e0800217 	ldw	r2,8(fp)
   12ab8:	1889883a 	add	r4,r3,r2
   12abc:	e0fffc17 	ldw	r3,-16(fp)
   12ac0:	e0800217 	ldw	r2,8(fp)
   12ac4:	188b883a 	add	r5,r3,r2
   12ac8:	e0bff317 	ldw	r2,-52(fp)
   12acc:	d8800015 	stw	r2,0(sp)
   12ad0:	e0bff217 	ldw	r2,-56(fp)
   12ad4:	d8800115 	stw	r2,4(sp)
   12ad8:	e0800317 	ldw	r2,12(fp)
   12adc:	d8800215 	stw	r2,8(sp)
   12ae0:	e0800417 	ldw	r2,16(fp)
   12ae4:	d8800315 	stw	r2,12(sp)
   12ae8:	e1bffa17 	ldw	r6,-24(fp)
   12aec:	e1fff917 	ldw	r7,-28(fp)
   12af0:	0012cd40 	call	12cd4 <LCD_round_corner_points>
   12af4:	00002b06 	br	12ba4 <LCD_draw_round_corner_box+0x22c>
   12af8:	e0bffa17 	ldw	r2,-24(fp)
   12afc:	10800044 	addi	r2,r2,1
   12b00:	e0bffa15 	stw	r2,-24(fp)
   12b04:	e0bff817 	ldw	r2,-32(fp)
   12b08:	1004403a 	cmpge	r2,r2,zero
   12b0c:	1000081e 	bne	r2,zero,12b30 <LCD_draw_round_corner_box+0x1b8>
   12b10:	e0bffa17 	ldw	r2,-24(fp)
   12b14:	1085883a 	add	r2,r2,r2
   12b18:	1007883a 	mov	r3,r2
   12b1c:	e0bff817 	ldw	r2,-32(fp)
   12b20:	1885883a 	add	r2,r3,r2
   12b24:	10800044 	addi	r2,r2,1
   12b28:	e0bff815 	stw	r2,-32(fp)
   12b2c:	00000c06 	br	12b60 <LCD_draw_round_corner_box+0x1e8>
   12b30:	e0bff917 	ldw	r2,-28(fp)
   12b34:	10bfffc4 	addi	r2,r2,-1
   12b38:	e0bff915 	stw	r2,-28(fp)
   12b3c:	e0fffa17 	ldw	r3,-24(fp)
   12b40:	e0bff917 	ldw	r2,-28(fp)
   12b44:	1885c83a 	sub	r2,r3,r2
   12b48:	1085883a 	add	r2,r2,r2
   12b4c:	1007883a 	mov	r3,r2
   12b50:	e0bff817 	ldw	r2,-32(fp)
   12b54:	1885883a 	add	r2,r3,r2
   12b58:	10800044 	addi	r2,r2,1
   12b5c:	e0bff815 	stw	r2,-32(fp)
   12b60:	e0fffb17 	ldw	r3,-20(fp)
   12b64:	e0800217 	ldw	r2,8(fp)
   12b68:	1889883a 	add	r4,r3,r2
   12b6c:	e0fffc17 	ldw	r3,-16(fp)
   12b70:	e0800217 	ldw	r2,8(fp)
   12b74:	188b883a 	add	r5,r3,r2
   12b78:	e0bff317 	ldw	r2,-52(fp)
   12b7c:	d8800015 	stw	r2,0(sp)
   12b80:	e0bff217 	ldw	r2,-56(fp)
   12b84:	d8800115 	stw	r2,4(sp)
   12b88:	e0800317 	ldw	r2,12(fp)
   12b8c:	d8800215 	stw	r2,8(sp)
   12b90:	e0800417 	ldw	r2,16(fp)
   12b94:	d8800315 	stw	r2,12(sp)
   12b98:	e1bffa17 	ldw	r6,-24(fp)
   12b9c:	e1fff917 	ldw	r7,-28(fp)
   12ba0:	0012cd40 	call	12cd4 <LCD_round_corner_points>
   12ba4:	e0fffa17 	ldw	r3,-24(fp)
   12ba8:	e0bff917 	ldw	r2,-28(fp)
   12bac:	18bfd236 	bltu	r3,r2,12af8 <LCD_draw_round_corner_box+0x180>
   12bb0:	e0800417 	ldw	r2,16(fp)
   12bb4:	1005003a 	cmpeq	r2,r2,zero
   12bb8:	10000c1e 	bne	r2,zero,12bec <LCD_draw_round_corner_box+0x274>
   12bbc:	e0fffc17 	ldw	r3,-16(fp)
   12bc0:	e0800217 	ldw	r2,8(fp)
   12bc4:	188b883a 	add	r5,r3,r2
   12bc8:	e0fffe17 	ldw	r3,-8(fp)
   12bcc:	e0800217 	ldw	r2,8(fp)
   12bd0:	188fc83a 	sub	r7,r3,r2
   12bd4:	e0800317 	ldw	r2,12(fp)
   12bd8:	d8800015 	stw	r2,0(sp)
   12bdc:	e13ffb17 	ldw	r4,-20(fp)
   12be0:	e1bffd17 	ldw	r6,-12(fp)
   12be4:	0011db00 	call	11db0 <LCD_paint_block>
   12be8:	00003406 	br	12cbc <LCD_draw_round_corner_box+0x344>
   12bec:	e0fffc17 	ldw	r3,-16(fp)
   12bf0:	e0800217 	ldw	r2,8(fp)
   12bf4:	188b883a 	add	r5,r3,r2
   12bf8:	e0fffe17 	ldw	r3,-8(fp)
   12bfc:	e0800217 	ldw	r2,8(fp)
   12c00:	188fc83a 	sub	r7,r3,r2
   12c04:	00800044 	movi	r2,1
   12c08:	d8800015 	stw	r2,0(sp)
   12c0c:	e0800317 	ldw	r2,12(fp)
   12c10:	d8800115 	stw	r2,4(sp)
   12c14:	e13ffb17 	ldw	r4,-20(fp)
   12c18:	e1bffb17 	ldw	r6,-20(fp)
   12c1c:	00117300 	call	11730 <LCD_draw_line>
   12c20:	e0fffc17 	ldw	r3,-16(fp)
   12c24:	e0800217 	ldw	r2,8(fp)
   12c28:	188b883a 	add	r5,r3,r2
   12c2c:	e0fffe17 	ldw	r3,-8(fp)
   12c30:	e0800217 	ldw	r2,8(fp)
   12c34:	188fc83a 	sub	r7,r3,r2
   12c38:	00800044 	movi	r2,1
   12c3c:	d8800015 	stw	r2,0(sp)
   12c40:	e0800317 	ldw	r2,12(fp)
   12c44:	d8800115 	stw	r2,4(sp)
   12c48:	e13ffd17 	ldw	r4,-12(fp)
   12c4c:	e1bffd17 	ldw	r6,-12(fp)
   12c50:	00117300 	call	11730 <LCD_draw_line>
   12c54:	e0fffb17 	ldw	r3,-20(fp)
   12c58:	e0800217 	ldw	r2,8(fp)
   12c5c:	1889883a 	add	r4,r3,r2
   12c60:	e0fffd17 	ldw	r3,-12(fp)
   12c64:	e0800217 	ldw	r2,8(fp)
   12c68:	188dc83a 	sub	r6,r3,r2
   12c6c:	00800044 	movi	r2,1
   12c70:	d8800015 	stw	r2,0(sp)
   12c74:	e0800317 	ldw	r2,12(fp)
   12c78:	d8800115 	stw	r2,4(sp)
   12c7c:	e17ffc17 	ldw	r5,-16(fp)
   12c80:	e1fffc17 	ldw	r7,-16(fp)
   12c84:	00117300 	call	11730 <LCD_draw_line>
   12c88:	e0fffb17 	ldw	r3,-20(fp)
   12c8c:	e0800217 	ldw	r2,8(fp)
   12c90:	1889883a 	add	r4,r3,r2
   12c94:	e0fffd17 	ldw	r3,-12(fp)
   12c98:	e0800217 	ldw	r2,8(fp)
   12c9c:	188dc83a 	sub	r6,r3,r2
   12ca0:	00800044 	movi	r2,1
   12ca4:	d8800015 	stw	r2,0(sp)
   12ca8:	e0800317 	ldw	r2,12(fp)
   12cac:	d8800115 	stw	r2,4(sp)
   12cb0:	e17ffe17 	ldw	r5,-8(fp)
   12cb4:	e1fffe17 	ldw	r7,-8(fp)
   12cb8:	00117300 	call	11730 <LCD_draw_line>
   12cbc:	0005883a 	mov	r2,zero
   12cc0:	e037883a 	mov	sp,fp
   12cc4:	dfc00117 	ldw	ra,4(sp)
   12cc8:	df000017 	ldw	fp,0(sp)
   12ccc:	dec00204 	addi	sp,sp,8
   12cd0:	f800283a 	ret

00012cd4 <LCD_round_corner_points>:
   12cd4:	defff704 	addi	sp,sp,-36
   12cd8:	dfc00815 	stw	ra,32(sp)
   12cdc:	df000715 	stw	fp,28(sp)
   12ce0:	df000704 	addi	fp,sp,28
   12ce4:	e13ffb15 	stw	r4,-20(fp)
   12ce8:	e17ffc15 	stw	r5,-16(fp)
   12cec:	e1bffd15 	stw	r6,-12(fp)
   12cf0:	e1fffe15 	stw	r7,-8(fp)
   12cf4:	e0800517 	ldw	r2,20(fp)
   12cf8:	e0bfff05 	stb	r2,-4(fp)
   12cfc:	e0bffd17 	ldw	r2,-12(fp)
   12d00:	1004c03a 	cmpne	r2,r2,zero
   12d04:	1000671e 	bne	r2,zero,12ea4 <LCD_round_corner_points+0x1d0>
   12d08:	e0fffc17 	ldw	r3,-16(fp)
   12d0c:	e0bffe17 	ldw	r2,-8(fp)
   12d10:	1887883a 	add	r3,r3,r2
   12d14:	e0800317 	ldw	r2,12(fp)
   12d18:	188b883a 	add	r5,r3,r2
   12d1c:	e1800417 	ldw	r6,16(fp)
   12d20:	e13ffb17 	ldw	r4,-20(fp)
   12d24:	0011b440 	call	11b44 <LCD_set_pixel>
   12d28:	e0fffb17 	ldw	r3,-20(fp)
   12d2c:	e0800217 	ldw	r2,8(fp)
   12d30:	1889883a 	add	r4,r3,r2
   12d34:	e0fffc17 	ldw	r3,-16(fp)
   12d38:	e0bffe17 	ldw	r2,-8(fp)
   12d3c:	1887883a 	add	r3,r3,r2
   12d40:	e0800317 	ldw	r2,12(fp)
   12d44:	188b883a 	add	r5,r3,r2
   12d48:	e1800417 	ldw	r6,16(fp)
   12d4c:	0011b440 	call	11b44 <LCD_set_pixel>
   12d50:	e0fffc17 	ldw	r3,-16(fp)
   12d54:	e0bffe17 	ldw	r2,-8(fp)
   12d58:	188bc83a 	sub	r5,r3,r2
   12d5c:	e1800417 	ldw	r6,16(fp)
   12d60:	e13ffb17 	ldw	r4,-20(fp)
   12d64:	0011b440 	call	11b44 <LCD_set_pixel>
   12d68:	e0fffb17 	ldw	r3,-20(fp)
   12d6c:	e0800217 	ldw	r2,8(fp)
   12d70:	1889883a 	add	r4,r3,r2
   12d74:	e0fffc17 	ldw	r3,-16(fp)
   12d78:	e0bffe17 	ldw	r2,-8(fp)
   12d7c:	188bc83a 	sub	r5,r3,r2
   12d80:	e1800417 	ldw	r6,16(fp)
   12d84:	0011b440 	call	11b44 <LCD_set_pixel>
   12d88:	e0bfff07 	ldb	r2,-4(fp)
   12d8c:	1005003a 	cmpeq	r2,r2,zero
   12d90:	1000231e 	bne	r2,zero,12e20 <LCD_round_corner_points+0x14c>
   12d94:	e0fffb17 	ldw	r3,-20(fp)
   12d98:	e0bffe17 	ldw	r2,-8(fp)
   12d9c:	1889c83a 	sub	r4,r3,r2
   12da0:	e0fffb17 	ldw	r3,-20(fp)
   12da4:	e0bffe17 	ldw	r2,-8(fp)
   12da8:	1887883a 	add	r3,r3,r2
   12dac:	e0800217 	ldw	r2,8(fp)
   12db0:	188d883a 	add	r6,r3,r2
   12db4:	00800044 	movi	r2,1
   12db8:	d8800015 	stw	r2,0(sp)
   12dbc:	e0800417 	ldw	r2,16(fp)
   12dc0:	d8800115 	stw	r2,4(sp)
   12dc4:	e17ffc17 	ldw	r5,-16(fp)
   12dc8:	e1fffc17 	ldw	r7,-16(fp)
   12dcc:	00117300 	call	11730 <LCD_draw_line>
   12dd0:	e0fffb17 	ldw	r3,-20(fp)
   12dd4:	e0bffe17 	ldw	r2,-8(fp)
   12dd8:	1889c83a 	sub	r4,r3,r2
   12ddc:	e0fffc17 	ldw	r3,-16(fp)
   12de0:	e0800317 	ldw	r2,12(fp)
   12de4:	188b883a 	add	r5,r3,r2
   12de8:	e0fffb17 	ldw	r3,-20(fp)
   12dec:	e0bffe17 	ldw	r2,-8(fp)
   12df0:	1887883a 	add	r3,r3,r2
   12df4:	e0800217 	ldw	r2,8(fp)
   12df8:	188d883a 	add	r6,r3,r2
   12dfc:	e0fffc17 	ldw	r3,-16(fp)
   12e00:	e0800317 	ldw	r2,12(fp)
   12e04:	188f883a 	add	r7,r3,r2
   12e08:	00800044 	movi	r2,1
   12e0c:	d8800015 	stw	r2,0(sp)
   12e10:	e0800417 	ldw	r2,16(fp)
   12e14:	d8800115 	stw	r2,4(sp)
   12e18:	00117300 	call	11730 <LCD_draw_line>
   12e1c:	00012606 	br	132b8 <LCD_round_corner_points+0x5e4>
   12e20:	e0fffb17 	ldw	r3,-20(fp)
   12e24:	e0bffe17 	ldw	r2,-8(fp)
   12e28:	1887883a 	add	r3,r3,r2
   12e2c:	e0800217 	ldw	r2,8(fp)
   12e30:	1889883a 	add	r4,r3,r2
   12e34:	e1800417 	ldw	r6,16(fp)
   12e38:	e17ffc17 	ldw	r5,-16(fp)
   12e3c:	0011b440 	call	11b44 <LCD_set_pixel>
   12e40:	e0fffb17 	ldw	r3,-20(fp)
   12e44:	e0bffe17 	ldw	r2,-8(fp)
   12e48:	1887883a 	add	r3,r3,r2
   12e4c:	e0800217 	ldw	r2,8(fp)
   12e50:	1889883a 	add	r4,r3,r2
   12e54:	e0fffc17 	ldw	r3,-16(fp)
   12e58:	e0800317 	ldw	r2,12(fp)
   12e5c:	188b883a 	add	r5,r3,r2
   12e60:	e1800417 	ldw	r6,16(fp)
   12e64:	0011b440 	call	11b44 <LCD_set_pixel>
   12e68:	e0fffb17 	ldw	r3,-20(fp)
   12e6c:	e0bffe17 	ldw	r2,-8(fp)
   12e70:	1889c83a 	sub	r4,r3,r2
   12e74:	e1800417 	ldw	r6,16(fp)
   12e78:	e17ffc17 	ldw	r5,-16(fp)
   12e7c:	0011b440 	call	11b44 <LCD_set_pixel>
   12e80:	e0fffb17 	ldw	r3,-20(fp)
   12e84:	e0bffe17 	ldw	r2,-8(fp)
   12e88:	1889c83a 	sub	r4,r3,r2
   12e8c:	e0fffc17 	ldw	r3,-16(fp)
   12e90:	e0800317 	ldw	r2,12(fp)
   12e94:	188b883a 	add	r5,r3,r2
   12e98:	e1800417 	ldw	r6,16(fp)
   12e9c:	0011b440 	call	11b44 <LCD_set_pixel>
   12ea0:	00010506 	br	132b8 <LCD_round_corner_points+0x5e4>
   12ea4:	e0fffd17 	ldw	r3,-12(fp)
   12ea8:	e0bffe17 	ldw	r2,-8(fp)
   12eac:	1880571e 	bne	r3,r2,1300c <LCD_round_corner_points+0x338>
   12eb0:	e0bfff07 	ldb	r2,-4(fp)
   12eb4:	1005003a 	cmpeq	r2,r2,zero
   12eb8:	10002b1e 	bne	r2,zero,12f68 <LCD_round_corner_points+0x294>
   12ebc:	e0fffb17 	ldw	r3,-20(fp)
   12ec0:	e0bffd17 	ldw	r2,-12(fp)
   12ec4:	1889c83a 	sub	r4,r3,r2
   12ec8:	e0fffc17 	ldw	r3,-16(fp)
   12ecc:	e0bffe17 	ldw	r2,-8(fp)
   12ed0:	1887883a 	add	r3,r3,r2
   12ed4:	e0800317 	ldw	r2,12(fp)
   12ed8:	188b883a 	add	r5,r3,r2
   12edc:	e0fffb17 	ldw	r3,-20(fp)
   12ee0:	e0bffd17 	ldw	r2,-12(fp)
   12ee4:	1887883a 	add	r3,r3,r2
   12ee8:	e0800217 	ldw	r2,8(fp)
   12eec:	188d883a 	add	r6,r3,r2
   12ef0:	e0fffc17 	ldw	r3,-16(fp)
   12ef4:	e0bffe17 	ldw	r2,-8(fp)
   12ef8:	1887883a 	add	r3,r3,r2
   12efc:	e0800317 	ldw	r2,12(fp)
   12f00:	188f883a 	add	r7,r3,r2
   12f04:	00800044 	movi	r2,1
   12f08:	d8800015 	stw	r2,0(sp)
   12f0c:	e0800417 	ldw	r2,16(fp)
   12f10:	d8800115 	stw	r2,4(sp)
   12f14:	00117300 	call	11730 <LCD_draw_line>
   12f18:	e0fffb17 	ldw	r3,-20(fp)
   12f1c:	e0bffd17 	ldw	r2,-12(fp)
   12f20:	1889c83a 	sub	r4,r3,r2
   12f24:	e0fffc17 	ldw	r3,-16(fp)
   12f28:	e0bffe17 	ldw	r2,-8(fp)
   12f2c:	188bc83a 	sub	r5,r3,r2
   12f30:	e0fffb17 	ldw	r3,-20(fp)
   12f34:	e0bffd17 	ldw	r2,-12(fp)
   12f38:	1887883a 	add	r3,r3,r2
   12f3c:	e0800217 	ldw	r2,8(fp)
   12f40:	188d883a 	add	r6,r3,r2
   12f44:	e0fffc17 	ldw	r3,-16(fp)
   12f48:	e0bffe17 	ldw	r2,-8(fp)
   12f4c:	188fc83a 	sub	r7,r3,r2
   12f50:	00800044 	movi	r2,1
   12f54:	d8800015 	stw	r2,0(sp)
   12f58:	e0800417 	ldw	r2,16(fp)
   12f5c:	d8800115 	stw	r2,4(sp)
   12f60:	00117300 	call	11730 <LCD_draw_line>
   12f64:	0000d406 	br	132b8 <LCD_round_corner_points+0x5e4>
   12f68:	e0fffb17 	ldw	r3,-20(fp)
   12f6c:	e0bffd17 	ldw	r2,-12(fp)
   12f70:	1887883a 	add	r3,r3,r2
   12f74:	e0800217 	ldw	r2,8(fp)
   12f78:	1889883a 	add	r4,r3,r2
   12f7c:	e0fffc17 	ldw	r3,-16(fp)
   12f80:	e0bffe17 	ldw	r2,-8(fp)
   12f84:	1887883a 	add	r3,r3,r2
   12f88:	e0800317 	ldw	r2,12(fp)
   12f8c:	188b883a 	add	r5,r3,r2
   12f90:	e1800417 	ldw	r6,16(fp)
   12f94:	0011b440 	call	11b44 <LCD_set_pixel>
   12f98:	e0fffb17 	ldw	r3,-20(fp)
   12f9c:	e0bffd17 	ldw	r2,-12(fp)
   12fa0:	1889c83a 	sub	r4,r3,r2
   12fa4:	e0fffc17 	ldw	r3,-16(fp)
   12fa8:	e0bffe17 	ldw	r2,-8(fp)
   12fac:	1887883a 	add	r3,r3,r2
   12fb0:	e0800317 	ldw	r2,12(fp)
   12fb4:	188b883a 	add	r5,r3,r2
   12fb8:	e1800417 	ldw	r6,16(fp)
   12fbc:	0011b440 	call	11b44 <LCD_set_pixel>
   12fc0:	e0fffb17 	ldw	r3,-20(fp)
   12fc4:	e0bffd17 	ldw	r2,-12(fp)
   12fc8:	1887883a 	add	r3,r3,r2
   12fcc:	e0800217 	ldw	r2,8(fp)
   12fd0:	1889883a 	add	r4,r3,r2
   12fd4:	e0fffc17 	ldw	r3,-16(fp)
   12fd8:	e0bffe17 	ldw	r2,-8(fp)
   12fdc:	188bc83a 	sub	r5,r3,r2
   12fe0:	e1800417 	ldw	r6,16(fp)
   12fe4:	0011b440 	call	11b44 <LCD_set_pixel>
   12fe8:	e0fffb17 	ldw	r3,-20(fp)
   12fec:	e0bffd17 	ldw	r2,-12(fp)
   12ff0:	1889c83a 	sub	r4,r3,r2
   12ff4:	e0fffc17 	ldw	r3,-16(fp)
   12ff8:	e0bffe17 	ldw	r2,-8(fp)
   12ffc:	188bc83a 	sub	r5,r3,r2
   13000:	e1800417 	ldw	r6,16(fp)
   13004:	0011b440 	call	11b44 <LCD_set_pixel>
   13008:	0000ab06 	br	132b8 <LCD_round_corner_points+0x5e4>
   1300c:	e0fffd17 	ldw	r3,-12(fp)
   13010:	e0bffe17 	ldw	r2,-8(fp)
   13014:	1880a80e 	bge	r3,r2,132b8 <LCD_round_corner_points+0x5e4>
   13018:	e0bfff07 	ldb	r2,-4(fp)
   1301c:	1005003a 	cmpeq	r2,r2,zero
   13020:	1000551e 	bne	r2,zero,13178 <LCD_round_corner_points+0x4a4>
   13024:	e0fffb17 	ldw	r3,-20(fp)
   13028:	e0bffd17 	ldw	r2,-12(fp)
   1302c:	1889c83a 	sub	r4,r3,r2
   13030:	e0fffc17 	ldw	r3,-16(fp)
   13034:	e0bffe17 	ldw	r2,-8(fp)
   13038:	1887883a 	add	r3,r3,r2
   1303c:	e0800317 	ldw	r2,12(fp)
   13040:	188b883a 	add	r5,r3,r2
   13044:	e0fffb17 	ldw	r3,-20(fp)
   13048:	e0bffd17 	ldw	r2,-12(fp)
   1304c:	1887883a 	add	r3,r3,r2
   13050:	e0800217 	ldw	r2,8(fp)
   13054:	188d883a 	add	r6,r3,r2
   13058:	e0fffc17 	ldw	r3,-16(fp)
   1305c:	e0bffe17 	ldw	r2,-8(fp)
   13060:	1887883a 	add	r3,r3,r2
   13064:	e0800317 	ldw	r2,12(fp)
   13068:	188f883a 	add	r7,r3,r2
   1306c:	00800044 	movi	r2,1
   13070:	d8800015 	stw	r2,0(sp)
   13074:	e0800417 	ldw	r2,16(fp)
   13078:	d8800115 	stw	r2,4(sp)
   1307c:	00117300 	call	11730 <LCD_draw_line>
   13080:	e0fffb17 	ldw	r3,-20(fp)
   13084:	e0bffe17 	ldw	r2,-8(fp)
   13088:	1889c83a 	sub	r4,r3,r2
   1308c:	e0fffc17 	ldw	r3,-16(fp)
   13090:	e0bffd17 	ldw	r2,-12(fp)
   13094:	1887883a 	add	r3,r3,r2
   13098:	e0800317 	ldw	r2,12(fp)
   1309c:	188b883a 	add	r5,r3,r2
   130a0:	e0fffb17 	ldw	r3,-20(fp)
   130a4:	e0bffe17 	ldw	r2,-8(fp)
   130a8:	1887883a 	add	r3,r3,r2
   130ac:	e0800217 	ldw	r2,8(fp)
   130b0:	188d883a 	add	r6,r3,r2
   130b4:	e0fffc17 	ldw	r3,-16(fp)
   130b8:	e0bffd17 	ldw	r2,-12(fp)
   130bc:	1887883a 	add	r3,r3,r2
   130c0:	e0800317 	ldw	r2,12(fp)
   130c4:	188f883a 	add	r7,r3,r2
   130c8:	00800044 	movi	r2,1
   130cc:	d8800015 	stw	r2,0(sp)
   130d0:	e0800417 	ldw	r2,16(fp)
   130d4:	d8800115 	stw	r2,4(sp)
   130d8:	00117300 	call	11730 <LCD_draw_line>
   130dc:	e0fffb17 	ldw	r3,-20(fp)
   130e0:	e0bffe17 	ldw	r2,-8(fp)
   130e4:	1889c83a 	sub	r4,r3,r2
   130e8:	e0fffc17 	ldw	r3,-16(fp)
   130ec:	e0bffd17 	ldw	r2,-12(fp)
   130f0:	188bc83a 	sub	r5,r3,r2
   130f4:	e0fffb17 	ldw	r3,-20(fp)
   130f8:	e0bffe17 	ldw	r2,-8(fp)
   130fc:	1887883a 	add	r3,r3,r2
   13100:	e0800217 	ldw	r2,8(fp)
   13104:	188d883a 	add	r6,r3,r2
   13108:	e0fffc17 	ldw	r3,-16(fp)
   1310c:	e0bffd17 	ldw	r2,-12(fp)
   13110:	188fc83a 	sub	r7,r3,r2
   13114:	00800044 	movi	r2,1
   13118:	d8800015 	stw	r2,0(sp)
   1311c:	e0800417 	ldw	r2,16(fp)
   13120:	d8800115 	stw	r2,4(sp)
   13124:	00117300 	call	11730 <LCD_draw_line>
   13128:	e0fffb17 	ldw	r3,-20(fp)
   1312c:	e0bffd17 	ldw	r2,-12(fp)
   13130:	1889c83a 	sub	r4,r3,r2
   13134:	e0fffc17 	ldw	r3,-16(fp)
   13138:	e0bffe17 	ldw	r2,-8(fp)
   1313c:	188bc83a 	sub	r5,r3,r2
   13140:	e0fffb17 	ldw	r3,-20(fp)
   13144:	e0bffd17 	ldw	r2,-12(fp)
   13148:	1887883a 	add	r3,r3,r2
   1314c:	e0800217 	ldw	r2,8(fp)
   13150:	188d883a 	add	r6,r3,r2
   13154:	e0fffc17 	ldw	r3,-16(fp)
   13158:	e0bffe17 	ldw	r2,-8(fp)
   1315c:	188fc83a 	sub	r7,r3,r2
   13160:	00800044 	movi	r2,1
   13164:	d8800015 	stw	r2,0(sp)
   13168:	e0800417 	ldw	r2,16(fp)
   1316c:	d8800115 	stw	r2,4(sp)
   13170:	00117300 	call	11730 <LCD_draw_line>
   13174:	00005006 	br	132b8 <LCD_round_corner_points+0x5e4>
   13178:	e0fffb17 	ldw	r3,-20(fp)
   1317c:	e0bffd17 	ldw	r2,-12(fp)
   13180:	1887883a 	add	r3,r3,r2
   13184:	e0800217 	ldw	r2,8(fp)
   13188:	1889883a 	add	r4,r3,r2
   1318c:	e0fffc17 	ldw	r3,-16(fp)
   13190:	e0bffe17 	ldw	r2,-8(fp)
   13194:	1887883a 	add	r3,r3,r2
   13198:	e0800317 	ldw	r2,12(fp)
   1319c:	188b883a 	add	r5,r3,r2
   131a0:	e1800417 	ldw	r6,16(fp)
   131a4:	0011b440 	call	11b44 <LCD_set_pixel>
   131a8:	e0fffb17 	ldw	r3,-20(fp)
   131ac:	e0bffd17 	ldw	r2,-12(fp)
   131b0:	1889c83a 	sub	r4,r3,r2
   131b4:	e0fffc17 	ldw	r3,-16(fp)
   131b8:	e0bffe17 	ldw	r2,-8(fp)
   131bc:	1887883a 	add	r3,r3,r2
   131c0:	e0800317 	ldw	r2,12(fp)
   131c4:	188b883a 	add	r5,r3,r2
   131c8:	e1800417 	ldw	r6,16(fp)
   131cc:	0011b440 	call	11b44 <LCD_set_pixel>
   131d0:	e0fffb17 	ldw	r3,-20(fp)
   131d4:	e0bffd17 	ldw	r2,-12(fp)
   131d8:	1887883a 	add	r3,r3,r2
   131dc:	e0800217 	ldw	r2,8(fp)
   131e0:	1889883a 	add	r4,r3,r2
   131e4:	e0fffc17 	ldw	r3,-16(fp)
   131e8:	e0bffe17 	ldw	r2,-8(fp)
   131ec:	188bc83a 	sub	r5,r3,r2
   131f0:	e1800417 	ldw	r6,16(fp)
   131f4:	0011b440 	call	11b44 <LCD_set_pixel>
   131f8:	e0fffb17 	ldw	r3,-20(fp)
   131fc:	e0bffd17 	ldw	r2,-12(fp)
   13200:	1889c83a 	sub	r4,r3,r2
   13204:	e0fffc17 	ldw	r3,-16(fp)
   13208:	e0bffe17 	ldw	r2,-8(fp)
   1320c:	188bc83a 	sub	r5,r3,r2
   13210:	e1800417 	ldw	r6,16(fp)
   13214:	0011b440 	call	11b44 <LCD_set_pixel>
   13218:	e0fffb17 	ldw	r3,-20(fp)
   1321c:	e0bffe17 	ldw	r2,-8(fp)
   13220:	1887883a 	add	r3,r3,r2
   13224:	e0800217 	ldw	r2,8(fp)
   13228:	1889883a 	add	r4,r3,r2
   1322c:	e0fffc17 	ldw	r3,-16(fp)
   13230:	e0bffd17 	ldw	r2,-12(fp)
   13234:	1887883a 	add	r3,r3,r2
   13238:	e0800317 	ldw	r2,12(fp)
   1323c:	188b883a 	add	r5,r3,r2
   13240:	e1800417 	ldw	r6,16(fp)
   13244:	0011b440 	call	11b44 <LCD_set_pixel>
   13248:	e0fffb17 	ldw	r3,-20(fp)
   1324c:	e0bffe17 	ldw	r2,-8(fp)
   13250:	1889c83a 	sub	r4,r3,r2
   13254:	e0fffc17 	ldw	r3,-16(fp)
   13258:	e0bffd17 	ldw	r2,-12(fp)
   1325c:	1887883a 	add	r3,r3,r2
   13260:	e0800317 	ldw	r2,12(fp)
   13264:	188b883a 	add	r5,r3,r2
   13268:	e1800417 	ldw	r6,16(fp)
   1326c:	0011b440 	call	11b44 <LCD_set_pixel>
   13270:	e0fffb17 	ldw	r3,-20(fp)
   13274:	e0bffe17 	ldw	r2,-8(fp)
   13278:	1887883a 	add	r3,r3,r2
   1327c:	e0800217 	ldw	r2,8(fp)
   13280:	1889883a 	add	r4,r3,r2
   13284:	e0fffc17 	ldw	r3,-16(fp)
   13288:	e0bffd17 	ldw	r2,-12(fp)
   1328c:	188bc83a 	sub	r5,r3,r2
   13290:	e1800417 	ldw	r6,16(fp)
   13294:	0011b440 	call	11b44 <LCD_set_pixel>
   13298:	e0fffb17 	ldw	r3,-20(fp)
   1329c:	e0bffe17 	ldw	r2,-8(fp)
   132a0:	1889c83a 	sub	r4,r3,r2
   132a4:	e0fffc17 	ldw	r3,-16(fp)
   132a8:	e0bffd17 	ldw	r2,-12(fp)
   132ac:	188bc83a 	sub	r5,r3,r2
   132b0:	e1800417 	ldw	r6,16(fp)
   132b4:	0011b440 	call	11b44 <LCD_set_pixel>
   132b8:	e037883a 	mov	sp,fp
   132bc:	dfc00117 	ldw	ra,4(sp)
   132c0:	df000017 	ldw	fp,0(sp)
   132c4:	dec00204 	addi	sp,sp,8
   132c8:	f800283a 	ret

000132cc <__fixunssfsi>:
   132cc:	defffd04 	addi	sp,sp,-12
   132d0:	dc000015 	stw	r16,0(sp)
   132d4:	0413c034 	movhi	r16,20224
   132d8:	800b883a 	mov	r5,r16
   132dc:	dc400115 	stw	r17,4(sp)
   132e0:	dfc00215 	stw	ra,8(sp)
   132e4:	2023883a 	mov	r17,r4
   132e8:	00139480 	call	13948 <__gesf2>
   132ec:	800b883a 	mov	r5,r16
   132f0:	8809883a 	mov	r4,r17
   132f4:	10000a16 	blt	r2,zero,13320 <__fixunssfsi+0x54>
   132f8:	00135200 	call	13520 <__subsf3>
   132fc:	1009883a 	mov	r4,r2
   13300:	00139c00 	call	139c0 <__fixsfsi>
   13304:	00e00034 	movhi	r3,32768
   13308:	10c5883a 	add	r2,r2,r3
   1330c:	dfc00217 	ldw	ra,8(sp)
   13310:	dc400117 	ldw	r17,4(sp)
   13314:	dc000017 	ldw	r16,0(sp)
   13318:	dec00304 	addi	sp,sp,12
   1331c:	f800283a 	ret
   13320:	8809883a 	mov	r4,r17
   13324:	00139c00 	call	139c0 <__fixsfsi>
   13328:	dfc00217 	ldw	ra,8(sp)
   1332c:	dc400117 	ldw	r17,4(sp)
   13330:	dc000017 	ldw	r16,0(sp)
   13334:	dec00304 	addi	sp,sp,12
   13338:	f800283a 	ret

0001333c <_fpadd_parts>:
   1333c:	21c00017 	ldw	r7,0(r4)
   13340:	02000044 	movi	r8,1
   13344:	41c0332e 	bgeu	r8,r7,13414 <_fpadd_parts+0xd8>
   13348:	28800017 	ldw	r2,0(r5)
   1334c:	4080462e 	bgeu	r8,r2,13468 <_fpadd_parts+0x12c>
   13350:	00c00104 	movi	r3,4
   13354:	38c06b26 	beq	r7,r3,13504 <_fpadd_parts+0x1c8>
   13358:	10c04326 	beq	r2,r3,13468 <_fpadd_parts+0x12c>
   1335c:	00c00084 	movi	r3,2
   13360:	10c02e26 	beq	r2,r3,1341c <_fpadd_parts+0xe0>
   13364:	38c04026 	beq	r7,r3,13468 <_fpadd_parts+0x12c>
   13368:	22800217 	ldw	r10,8(r4)
   1336c:	28c00217 	ldw	r3,8(r5)
   13370:	23000317 	ldw	r12,12(r4)
   13374:	2a400317 	ldw	r9,12(r5)
   13378:	50cfc83a 	sub	r7,r10,r3
   1337c:	3817883a 	mov	r11,r7
   13380:	38004f16 	blt	r7,zero,134c0 <_fpadd_parts+0x184>
   13384:	008007c4 	movi	r2,31
   13388:	11c03316 	blt	r2,r7,13458 <_fpadd_parts+0x11c>
   1338c:	02c0540e 	bge	zero,r11,134e0 <_fpadd_parts+0x1a4>
   13390:	41c4983a 	sll	r2,r8,r7
   13394:	49c6d83a 	srl	r3,r9,r7
   13398:	10bfffc4 	addi	r2,r2,-1
   1339c:	4884703a 	and	r2,r9,r2
   133a0:	1004c03a 	cmpne	r2,r2,zero
   133a4:	1892b03a 	or	r9,r3,r2
   133a8:	20c00117 	ldw	r3,4(r4)
   133ac:	28800117 	ldw	r2,4(r5)
   133b0:	18803c26 	beq	r3,r2,134a4 <_fpadd_parts+0x168>
   133b4:	18002f26 	beq	r3,zero,13474 <_fpadd_parts+0x138>
   133b8:	4b05c83a 	sub	r2,r9,r12
   133bc:	10004216 	blt	r2,zero,134c8 <_fpadd_parts+0x18c>
   133c0:	32800215 	stw	r10,8(r6)
   133c4:	30800315 	stw	r2,12(r6)
   133c8:	30000115 	stw	zero,4(r6)
   133cc:	31000317 	ldw	r4,12(r6)
   133d0:	01d00034 	movhi	r7,16384
   133d4:	39ffff84 	addi	r7,r7,-2
   133d8:	20bfffc4 	addi	r2,r4,-1
   133dc:	2007883a 	mov	r3,r4
   133e0:	38800836 	bltu	r7,r2,13404 <_fpadd_parts+0xc8>
   133e4:	31400217 	ldw	r5,8(r6)
   133e8:	18c9883a 	add	r4,r3,r3
   133ec:	20bfffc4 	addi	r2,r4,-1
   133f0:	297fffc4 	addi	r5,r5,-1
   133f4:	2007883a 	mov	r3,r4
   133f8:	38bffb2e 	bgeu	r7,r2,133e8 <_fpadd_parts+0xac>
   133fc:	31400215 	stw	r5,8(r6)
   13400:	31000315 	stw	r4,12(r6)
   13404:	008000c4 	movi	r2,3
   13408:	30800015 	stw	r2,0(r6)
   1340c:	20001b16 	blt	r4,zero,1347c <_fpadd_parts+0x140>
   13410:	3009883a 	mov	r4,r6
   13414:	2005883a 	mov	r2,r4
   13418:	f800283a 	ret
   1341c:	38fffd1e 	bne	r7,r3,13414 <_fpadd_parts+0xd8>
   13420:	31c00015 	stw	r7,0(r6)
   13424:	20800117 	ldw	r2,4(r4)
   13428:	30800115 	stw	r2,4(r6)
   1342c:	20c00217 	ldw	r3,8(r4)
   13430:	30c00215 	stw	r3,8(r6)
   13434:	20800317 	ldw	r2,12(r4)
   13438:	30800315 	stw	r2,12(r6)
   1343c:	20c00117 	ldw	r3,4(r4)
   13440:	28800117 	ldw	r2,4(r5)
   13444:	3009883a 	mov	r4,r6
   13448:	1886703a 	and	r3,r3,r2
   1344c:	2005883a 	mov	r2,r4
   13450:	30c00115 	stw	r3,4(r6)
   13454:	f800283a 	ret
   13458:	1a801716 	blt	r3,r10,134b8 <_fpadd_parts+0x17c>
   1345c:	1815883a 	mov	r10,r3
   13460:	0019883a 	mov	r12,zero
   13464:	003fd006 	br	133a8 <_fpadd_parts+0x6c>
   13468:	2809883a 	mov	r4,r5
   1346c:	2005883a 	mov	r2,r4
   13470:	f800283a 	ret
   13474:	6245c83a 	sub	r2,r12,r9
   13478:	003fd006 	br	133bc <_fpadd_parts+0x80>
   1347c:	30800217 	ldw	r2,8(r6)
   13480:	2006d07a 	srli	r3,r4,1
   13484:	2100004c 	andi	r4,r4,1
   13488:	10800044 	addi	r2,r2,1
   1348c:	1906b03a 	or	r3,r3,r4
   13490:	3009883a 	mov	r4,r6
   13494:	30800215 	stw	r2,8(r6)
   13498:	2005883a 	mov	r2,r4
   1349c:	30c00315 	stw	r3,12(r6)
   134a0:	f800283a 	ret
   134a4:	4b09883a 	add	r4,r9,r12
   134a8:	30c00115 	stw	r3,4(r6)
   134ac:	32800215 	stw	r10,8(r6)
   134b0:	31000315 	stw	r4,12(r6)
   134b4:	003fd306 	br	13404 <_fpadd_parts+0xc8>
   134b8:	0013883a 	mov	r9,zero
   134bc:	003fba06 	br	133a8 <_fpadd_parts+0x6c>
   134c0:	01cfc83a 	sub	r7,zero,r7
   134c4:	003faf06 	br	13384 <_fpadd_parts+0x48>
   134c8:	0089c83a 	sub	r4,zero,r2
   134cc:	00800044 	movi	r2,1
   134d0:	30800115 	stw	r2,4(r6)
   134d4:	32800215 	stw	r10,8(r6)
   134d8:	31000315 	stw	r4,12(r6)
   134dc:	003fbb06 	br	133cc <_fpadd_parts+0x90>
   134e0:	583fb126 	beq	r11,zero,133a8 <_fpadd_parts+0x6c>
   134e4:	41c4983a 	sll	r2,r8,r7
   134e8:	61c6d83a 	srl	r3,r12,r7
   134ec:	51d5883a 	add	r10,r10,r7
   134f0:	10bfffc4 	addi	r2,r2,-1
   134f4:	6084703a 	and	r2,r12,r2
   134f8:	1004c03a 	cmpne	r2,r2,zero
   134fc:	1898b03a 	or	r12,r3,r2
   13500:	003fa906 	br	133a8 <_fpadd_parts+0x6c>
   13504:	11ffc31e 	bne	r2,r7,13414 <_fpadd_parts+0xd8>
   13508:	28c00117 	ldw	r3,4(r5)
   1350c:	20800117 	ldw	r2,4(r4)
   13510:	10ffc026 	beq	r2,r3,13414 <_fpadd_parts+0xd8>
   13514:	01000074 	movhi	r4,1
   13518:	211e7704 	addi	r4,r4,31196
   1351c:	003fbd06 	br	13414 <_fpadd_parts+0xd8>

00013520 <__subsf3>:
   13520:	deffef04 	addi	sp,sp,-68
   13524:	dcc00f15 	stw	r19,60(sp)
   13528:	dcc00204 	addi	r19,sp,8
   1352c:	dc400e15 	stw	r17,56(sp)
   13530:	d9000015 	stw	r4,0(sp)
   13534:	d9400115 	stw	r5,4(sp)
   13538:	d809883a 	mov	r4,sp
   1353c:	980b883a 	mov	r5,r19
   13540:	dc400604 	addi	r17,sp,24
   13544:	dfc01015 	stw	ra,64(sp)
   13548:	00148e80 	call	148e8 <__unpack_f>
   1354c:	d9000104 	addi	r4,sp,4
   13550:	880b883a 	mov	r5,r17
   13554:	00148e80 	call	148e8 <__unpack_f>
   13558:	d8800717 	ldw	r2,28(sp)
   1355c:	9809883a 	mov	r4,r19
   13560:	880b883a 	mov	r5,r17
   13564:	d9800a04 	addi	r6,sp,40
   13568:	1080005c 	xori	r2,r2,1
   1356c:	d8800715 	stw	r2,28(sp)
   13570:	001333c0 	call	1333c <_fpadd_parts>
   13574:	1009883a 	mov	r4,r2
   13578:	00147880 	call	14788 <__pack_f>
   1357c:	dfc01017 	ldw	ra,64(sp)
   13580:	dcc00f17 	ldw	r19,60(sp)
   13584:	dc400e17 	ldw	r17,56(sp)
   13588:	dec01104 	addi	sp,sp,68
   1358c:	f800283a 	ret

00013590 <__addsf3>:
   13590:	deffef04 	addi	sp,sp,-68
   13594:	dcc00f15 	stw	r19,60(sp)
   13598:	dcc00204 	addi	r19,sp,8
   1359c:	dc400e15 	stw	r17,56(sp)
   135a0:	d9000015 	stw	r4,0(sp)
   135a4:	d9400115 	stw	r5,4(sp)
   135a8:	d809883a 	mov	r4,sp
   135ac:	980b883a 	mov	r5,r19
   135b0:	dc400604 	addi	r17,sp,24
   135b4:	dfc01015 	stw	ra,64(sp)
   135b8:	00148e80 	call	148e8 <__unpack_f>
   135bc:	d9000104 	addi	r4,sp,4
   135c0:	880b883a 	mov	r5,r17
   135c4:	00148e80 	call	148e8 <__unpack_f>
   135c8:	d9800a04 	addi	r6,sp,40
   135cc:	9809883a 	mov	r4,r19
   135d0:	880b883a 	mov	r5,r17
   135d4:	001333c0 	call	1333c <_fpadd_parts>
   135d8:	1009883a 	mov	r4,r2
   135dc:	00147880 	call	14788 <__pack_f>
   135e0:	dfc01017 	ldw	ra,64(sp)
   135e4:	dcc00f17 	ldw	r19,60(sp)
   135e8:	dc400e17 	ldw	r17,56(sp)
   135ec:	dec01104 	addi	sp,sp,68
   135f0:	f800283a 	ret

000135f4 <__mulsf3>:
   135f4:	deffef04 	addi	sp,sp,-68
   135f8:	dc400f15 	stw	r17,60(sp)
   135fc:	dc400204 	addi	r17,sp,8
   13600:	dc000e15 	stw	r16,56(sp)
   13604:	d9000015 	stw	r4,0(sp)
   13608:	d9400115 	stw	r5,4(sp)
   1360c:	d809883a 	mov	r4,sp
   13610:	880b883a 	mov	r5,r17
   13614:	dc000604 	addi	r16,sp,24
   13618:	dfc01015 	stw	ra,64(sp)
   1361c:	00148e80 	call	148e8 <__unpack_f>
   13620:	d9000104 	addi	r4,sp,4
   13624:	800b883a 	mov	r5,r16
   13628:	00148e80 	call	148e8 <__unpack_f>
   1362c:	d9000217 	ldw	r4,8(sp)
   13630:	00800044 	movi	r2,1
   13634:	01400104 	movi	r5,4
   13638:	1100142e 	bgeu	r2,r4,1368c <__mulsf3+0x98>
   1363c:	d8c00617 	ldw	r3,24(sp)
   13640:	10c0052e 	bgeu	r2,r3,13658 <__mulsf3+0x64>
   13644:	21400f26 	beq	r4,r5,13684 <__mulsf3+0x90>
   13648:	19405d26 	beq	r3,r5,137c0 <__mulsf3+0x1cc>
   1364c:	00800084 	movi	r2,2
   13650:	20800e26 	beq	r4,r2,1368c <__mulsf3+0x98>
   13654:	1880181e 	bne	r3,r2,136b8 <__mulsf3+0xc4>
   13658:	d8c00717 	ldw	r3,28(sp)
   1365c:	d8800317 	ldw	r2,12(sp)
   13660:	8009883a 	mov	r4,r16
   13664:	10c4c03a 	cmpne	r2,r2,r3
   13668:	d8800715 	stw	r2,28(sp)
   1366c:	00147880 	call	14788 <__pack_f>
   13670:	dfc01017 	ldw	ra,64(sp)
   13674:	dc400f17 	ldw	r17,60(sp)
   13678:	dc000e17 	ldw	r16,56(sp)
   1367c:	dec01104 	addi	sp,sp,68
   13680:	f800283a 	ret
   13684:	00800084 	movi	r2,2
   13688:	18804f26 	beq	r3,r2,137c8 <__mulsf3+0x1d4>
   1368c:	d8800317 	ldw	r2,12(sp)
   13690:	d8c00717 	ldw	r3,28(sp)
   13694:	8809883a 	mov	r4,r17
   13698:	10c4c03a 	cmpne	r2,r2,r3
   1369c:	d8800315 	stw	r2,12(sp)
   136a0:	00147880 	call	14788 <__pack_f>
   136a4:	dfc01017 	ldw	ra,64(sp)
   136a8:	dc400f17 	ldw	r17,60(sp)
   136ac:	dc000e17 	ldw	r16,56(sp)
   136b0:	dec01104 	addi	sp,sp,68
   136b4:	f800283a 	ret
   136b8:	d8800517 	ldw	r2,20(sp)
   136bc:	da000917 	ldw	r8,36(sp)
   136c0:	0013883a 	mov	r9,zero
   136c4:	0007883a 	mov	r3,zero
   136c8:	480f883a 	mov	r7,r9
   136cc:	180b883a 	mov	r5,r3
   136d0:	400d883a 	mov	r6,r8
   136d4:	1009883a 	mov	r4,r2
   136d8:	00145e40 	call	145e4 <__muldi3>
   136dc:	da800417 	ldw	r10,16(sp)
   136e0:	d9800817 	ldw	r6,32(sp)
   136e4:	da400317 	ldw	r9,12(sp)
   136e8:	52800084 	addi	r10,r10,2
   136ec:	3295883a 	add	r10,r6,r10
   136f0:	d9800717 	ldw	r6,28(sp)
   136f4:	180b883a 	mov	r5,r3
   136f8:	180f883a 	mov	r7,r3
   136fc:	4992c03a 	cmpne	r9,r9,r6
   13700:	da400b15 	stw	r9,44(sp)
   13704:	1007883a 	mov	r3,r2
   13708:	da800c15 	stw	r10,48(sp)
   1370c:	2800070e 	bge	r5,zero,1372c <__mulsf3+0x138>
   13710:	2880004c 	andi	r2,r5,1
   13714:	1005003a 	cmpeq	r2,r2,zero
   13718:	500d883a 	mov	r6,r10
   1371c:	10001e26 	beq	r2,zero,13798 <__mulsf3+0x1a4>
   13720:	380ed07a 	srli	r7,r7,1
   13724:	31800044 	addi	r6,r6,1
   13728:	d9800c15 	stw	r6,48(sp)
   1372c:	01100034 	movhi	r4,16384
   13730:	213fffc4 	addi	r4,r4,-1
   13734:	21c00b36 	bltu	r4,r7,13764 <__mulsf3+0x170>
   13738:	d8800c17 	ldw	r2,48(sp)
   1373c:	00000206 	br	13748 <__mulsf3+0x154>
   13740:	18c7883a 	add	r3,r3,r3
   13744:	21c00636 	bltu	r4,r7,13760 <__mulsf3+0x16c>
   13748:	10bfffc4 	addi	r2,r2,-1
   1374c:	39cf883a 	add	r7,r7,r7
   13750:	183ffb0e 	bge	r3,zero,13740 <__mulsf3+0x14c>
   13754:	39c00054 	ori	r7,r7,1
   13758:	18c7883a 	add	r3,r3,r3
   1375c:	21fffa2e 	bgeu	r4,r7,13748 <__mulsf3+0x154>
   13760:	d8800c15 	stw	r2,48(sp)
   13764:	39001fcc 	andi	r4,r7,127
   13768:	00801004 	movi	r2,64
   1376c:	20800d26 	beq	r4,r2,137a4 <__mulsf3+0x1b0>
   13770:	008000c4 	movi	r2,3
   13774:	d9000a04 	addi	r4,sp,40
   13778:	d9c00d15 	stw	r7,52(sp)
   1377c:	d8800a15 	stw	r2,40(sp)
   13780:	00147880 	call	14788 <__pack_f>
   13784:	dfc01017 	ldw	ra,64(sp)
   13788:	dc400f17 	ldw	r17,60(sp)
   1378c:	dc000e17 	ldw	r16,56(sp)
   13790:	dec01104 	addi	sp,sp,68
   13794:	f800283a 	ret
   13798:	1804d07a 	srli	r2,r3,1
   1379c:	10e00034 	orhi	r3,r2,32768
   137a0:	003fdf06 	br	13720 <__mulsf3+0x12c>
   137a4:	3880200c 	andi	r2,r7,128
   137a8:	103ff11e 	bne	r2,zero,13770 <__mulsf3+0x17c>
   137ac:	183ff026 	beq	r3,zero,13770 <__mulsf3+0x17c>
   137b0:	3907883a 	add	r3,r7,r4
   137b4:	00bfe004 	movi	r2,-128
   137b8:	188e703a 	and	r7,r3,r2
   137bc:	003fec06 	br	13770 <__mulsf3+0x17c>
   137c0:	00800084 	movi	r2,2
   137c4:	20bfa41e 	bne	r4,r2,13658 <__mulsf3+0x64>
   137c8:	01000074 	movhi	r4,1
   137cc:	211e7704 	addi	r4,r4,31196
   137d0:	003fb306 	br	136a0 <__mulsf3+0xac>

000137d4 <__divsf3>:
   137d4:	defff304 	addi	sp,sp,-52
   137d8:	dc400b15 	stw	r17,44(sp)
   137dc:	dc400204 	addi	r17,sp,8
   137e0:	dc000a15 	stw	r16,40(sp)
   137e4:	d9000015 	stw	r4,0(sp)
   137e8:	d9400115 	stw	r5,4(sp)
   137ec:	d809883a 	mov	r4,sp
   137f0:	880b883a 	mov	r5,r17
   137f4:	dc000604 	addi	r16,sp,24
   137f8:	dfc00c15 	stw	ra,48(sp)
   137fc:	00148e80 	call	148e8 <__unpack_f>
   13800:	d9000104 	addi	r4,sp,4
   13804:	800b883a 	mov	r5,r16
   13808:	00148e80 	call	148e8 <__unpack_f>
   1380c:	d9000217 	ldw	r4,8(sp)
   13810:	00800044 	movi	r2,1
   13814:	01800104 	movi	r6,4
   13818:	11000a2e 	bgeu	r2,r4,13844 <__divsf3+0x70>
   1381c:	d9400617 	ldw	r5,24(sp)
   13820:	1140432e 	bgeu	r2,r5,13930 <__divsf3+0x15c>
   13824:	d8800317 	ldw	r2,12(sp)
   13828:	d8c00717 	ldw	r3,28(sp)
   1382c:	10c4f03a 	xor	r2,r2,r3
   13830:	d8800315 	stw	r2,12(sp)
   13834:	21800226 	beq	r4,r6,13840 <__divsf3+0x6c>
   13838:	00800084 	movi	r2,2
   1383c:	2080101e 	bne	r4,r2,13880 <__divsf3+0xac>
   13840:	29000726 	beq	r5,r4,13860 <__divsf3+0x8c>
   13844:	8809883a 	mov	r4,r17
   13848:	00147880 	call	14788 <__pack_f>
   1384c:	dfc00c17 	ldw	ra,48(sp)
   13850:	dc400b17 	ldw	r17,44(sp)
   13854:	dc000a17 	ldw	r16,40(sp)
   13858:	dec00d04 	addi	sp,sp,52
   1385c:	f800283a 	ret
   13860:	01000074 	movhi	r4,1
   13864:	211e7704 	addi	r4,r4,31196
   13868:	00147880 	call	14788 <__pack_f>
   1386c:	dfc00c17 	ldw	ra,48(sp)
   13870:	dc400b17 	ldw	r17,44(sp)
   13874:	dc000a17 	ldw	r16,40(sp)
   13878:	dec00d04 	addi	sp,sp,52
   1387c:	f800283a 	ret
   13880:	29802d26 	beq	r5,r6,13938 <__divsf3+0x164>
   13884:	28801a26 	beq	r5,r2,138f0 <__divsf3+0x11c>
   13888:	d8c00417 	ldw	r3,16(sp)
   1388c:	d8800817 	ldw	r2,32(sp)
   13890:	d9000517 	ldw	r4,20(sp)
   13894:	d9800917 	ldw	r6,36(sp)
   13898:	1885c83a 	sub	r2,r3,r2
   1389c:	d8800415 	stw	r2,16(sp)
   138a0:	2180032e 	bgeu	r4,r6,138b0 <__divsf3+0xdc>
   138a4:	10bfffc4 	addi	r2,r2,-1
   138a8:	d8800415 	stw	r2,16(sp)
   138ac:	2109883a 	add	r4,r4,r4
   138b0:	01500034 	movhi	r5,16384
   138b4:	0007883a 	mov	r3,zero
   138b8:	0005883a 	mov	r2,zero
   138bc:	01c007c4 	movi	r7,31
   138c0:	10800044 	addi	r2,r2,1
   138c4:	21800236 	bltu	r4,r6,138d0 <__divsf3+0xfc>
   138c8:	1946b03a 	or	r3,r3,r5
   138cc:	2189c83a 	sub	r4,r4,r6
   138d0:	280ad07a 	srli	r5,r5,1
   138d4:	2109883a 	add	r4,r4,r4
   138d8:	11fff91e 	bne	r2,r7,138c0 <__divsf3+0xec>
   138dc:	19401fcc 	andi	r5,r3,127
   138e0:	00801004 	movi	r2,64
   138e4:	28800a26 	beq	r5,r2,13910 <__divsf3+0x13c>
   138e8:	d8c00515 	stw	r3,20(sp)
   138ec:	003fd506 	br	13844 <__divsf3+0x70>
   138f0:	8809883a 	mov	r4,r17
   138f4:	d9800215 	stw	r6,8(sp)
   138f8:	00147880 	call	14788 <__pack_f>
   138fc:	dfc00c17 	ldw	ra,48(sp)
   13900:	dc400b17 	ldw	r17,44(sp)
   13904:	dc000a17 	ldw	r16,40(sp)
   13908:	dec00d04 	addi	sp,sp,52
   1390c:	f800283a 	ret
   13910:	1880200c 	andi	r2,r3,128
   13914:	103ff41e 	bne	r2,zero,138e8 <__divsf3+0x114>
   13918:	203ff326 	beq	r4,zero,138e8 <__divsf3+0x114>
   1391c:	1947883a 	add	r3,r3,r5
   13920:	00bfe004 	movi	r2,-128
   13924:	1886703a 	and	r3,r3,r2
   13928:	d8c00515 	stw	r3,20(sp)
   1392c:	003fc506 	br	13844 <__divsf3+0x70>
   13930:	8009883a 	mov	r4,r16
   13934:	003fc406 	br	13848 <__divsf3+0x74>
   13938:	8809883a 	mov	r4,r17
   1393c:	d8000515 	stw	zero,20(sp)
   13940:	d8000415 	stw	zero,16(sp)
   13944:	003fc006 	br	13848 <__divsf3+0x74>

00013948 <__gesf2>:
   13948:	defff304 	addi	sp,sp,-52
   1394c:	dc400b15 	stw	r17,44(sp)
   13950:	dc400204 	addi	r17,sp,8
   13954:	dc000a15 	stw	r16,40(sp)
   13958:	d9000015 	stw	r4,0(sp)
   1395c:	d9400115 	stw	r5,4(sp)
   13960:	d809883a 	mov	r4,sp
   13964:	880b883a 	mov	r5,r17
   13968:	dc000604 	addi	r16,sp,24
   1396c:	dfc00c15 	stw	ra,48(sp)
   13970:	00148e80 	call	148e8 <__unpack_f>
   13974:	d9000104 	addi	r4,sp,4
   13978:	800b883a 	mov	r5,r16
   1397c:	00148e80 	call	148e8 <__unpack_f>
   13980:	d8800217 	ldw	r2,8(sp)
   13984:	00c00044 	movi	r3,1
   13988:	01bfffc4 	movi	r6,-1
   1398c:	1880062e 	bgeu	r3,r2,139a8 <__gesf2+0x60>
   13990:	d8800617 	ldw	r2,24(sp)
   13994:	8809883a 	mov	r4,r17
   13998:	800b883a 	mov	r5,r16
   1399c:	1880022e 	bgeu	r3,r2,139a8 <__gesf2+0x60>
   139a0:	00149b00 	call	149b0 <__fpcmp_parts_f>
   139a4:	100d883a 	mov	r6,r2
   139a8:	3005883a 	mov	r2,r6
   139ac:	dfc00c17 	ldw	ra,48(sp)
   139b0:	dc400b17 	ldw	r17,44(sp)
   139b4:	dc000a17 	ldw	r16,40(sp)
   139b8:	dec00d04 	addi	sp,sp,52
   139bc:	f800283a 	ret

000139c0 <__fixsfsi>:
   139c0:	defffa04 	addi	sp,sp,-24
   139c4:	d9000015 	stw	r4,0(sp)
   139c8:	d9400104 	addi	r5,sp,4
   139cc:	d809883a 	mov	r4,sp
   139d0:	dfc00515 	stw	ra,20(sp)
   139d4:	00148e80 	call	148e8 <__unpack_f>
   139d8:	d8c00117 	ldw	r3,4(sp)
   139dc:	00800084 	movi	r2,2
   139e0:	1880041e 	bne	r3,r2,139f4 <__fixsfsi+0x34>
   139e4:	0005883a 	mov	r2,zero
   139e8:	dfc00517 	ldw	ra,20(sp)
   139ec:	dec00604 	addi	sp,sp,24
   139f0:	f800283a 	ret
   139f4:	00800044 	movi	r2,1
   139f8:	10fffa2e 	bgeu	r2,r3,139e4 <__fixsfsi+0x24>
   139fc:	00800104 	movi	r2,4
   13a00:	18800426 	beq	r3,r2,13a14 <__fixsfsi+0x54>
   13a04:	d8800317 	ldw	r2,12(sp)
   13a08:	103ff616 	blt	r2,zero,139e4 <__fixsfsi+0x24>
   13a0c:	00c00784 	movi	r3,30
   13a10:	1880070e 	bge	r3,r2,13a30 <__fixsfsi+0x70>
   13a14:	d8800217 	ldw	r2,8(sp)
   13a18:	10000c1e 	bne	r2,zero,13a4c <__fixsfsi+0x8c>
   13a1c:	00a00034 	movhi	r2,32768
   13a20:	10bfffc4 	addi	r2,r2,-1
   13a24:	dfc00517 	ldw	ra,20(sp)
   13a28:	dec00604 	addi	sp,sp,24
   13a2c:	f800283a 	ret
   13a30:	1885c83a 	sub	r2,r3,r2
   13a34:	d9000217 	ldw	r4,8(sp)
   13a38:	d8c00417 	ldw	r3,16(sp)
   13a3c:	1884d83a 	srl	r2,r3,r2
   13a40:	203fe926 	beq	r4,zero,139e8 <__fixsfsi+0x28>
   13a44:	0085c83a 	sub	r2,zero,r2
   13a48:	003fe706 	br	139e8 <__fixsfsi+0x28>
   13a4c:	00a00034 	movhi	r2,32768
   13a50:	003fe506 	br	139e8 <__fixsfsi+0x28>

00013a54 <__floatunsisf>:
   13a54:	defff904 	addi	sp,sp,-28
   13a58:	dc400515 	stw	r17,20(sp)
   13a5c:	dc000415 	stw	r16,16(sp)
   13a60:	dfc00615 	stw	ra,24(sp)
   13a64:	04400784 	movi	r17,30
   13a68:	2021883a 	mov	r16,r4
   13a6c:	d8000115 	stw	zero,4(sp)
   13a70:	2000091e 	bne	r4,zero,13a98 <__floatunsisf+0x44>
   13a74:	00800084 	movi	r2,2
   13a78:	d8800015 	stw	r2,0(sp)
   13a7c:	d809883a 	mov	r4,sp
   13a80:	00147880 	call	14788 <__pack_f>
   13a84:	dfc00617 	ldw	ra,24(sp)
   13a88:	dc400517 	ldw	r17,20(sp)
   13a8c:	dc000417 	ldw	r16,16(sp)
   13a90:	dec00704 	addi	sp,sp,28
   13a94:	f800283a 	ret
   13a98:	008000c4 	movi	r2,3
   13a9c:	d9000315 	stw	r4,12(sp)
   13aa0:	d8800015 	stw	r2,0(sp)
   13aa4:	dc400215 	stw	r17,8(sp)
   13aa8:	00147080 	call	14708 <__clzsi2>
   13aac:	117fffc4 	addi	r5,r2,-1
   13ab0:	0147c83a 	sub	r3,zero,r5
   13ab4:	00800044 	movi	r2,1
   13ab8:	10c4983a 	sll	r2,r2,r3
   13abc:	80c6d83a 	srl	r3,r16,r3
   13ac0:	8949c83a 	sub	r4,r17,r5
   13ac4:	10bfffc4 	addi	r2,r2,-1
   13ac8:	8084703a 	and	r2,r16,r2
   13acc:	1004c03a 	cmpne	r2,r2,zero
   13ad0:	1886b03a 	or	r3,r3,r2
   13ad4:	28000c16 	blt	r5,zero,13b08 <__floatunsisf+0xb4>
   13ad8:	8144983a 	sll	r2,r16,r5
   13adc:	8947c83a 	sub	r3,r17,r5
   13ae0:	283fe626 	beq	r5,zero,13a7c <__floatunsisf+0x28>
   13ae4:	d809883a 	mov	r4,sp
   13ae8:	d8800315 	stw	r2,12(sp)
   13aec:	d8c00215 	stw	r3,8(sp)
   13af0:	00147880 	call	14788 <__pack_f>
   13af4:	dfc00617 	ldw	ra,24(sp)
   13af8:	dc400517 	ldw	r17,20(sp)
   13afc:	dc000417 	ldw	r16,16(sp)
   13b00:	dec00704 	addi	sp,sp,28
   13b04:	f800283a 	ret
   13b08:	d8c00315 	stw	r3,12(sp)
   13b0c:	d9000215 	stw	r4,8(sp)
   13b10:	003fda06 	br	13a7c <__floatunsisf+0x28>

00013b14 <_fpadd_parts>:
   13b14:	defff804 	addi	sp,sp,-32
   13b18:	dcc00315 	stw	r19,12(sp)
   13b1c:	2027883a 	mov	r19,r4
   13b20:	21000017 	ldw	r4,0(r4)
   13b24:	00c00044 	movi	r3,1
   13b28:	dd400515 	stw	r21,20(sp)
   13b2c:	dd000415 	stw	r20,16(sp)
   13b30:	ddc00715 	stw	r23,28(sp)
   13b34:	dd800615 	stw	r22,24(sp)
   13b38:	dc800215 	stw	r18,8(sp)
   13b3c:	dc400115 	stw	r17,4(sp)
   13b40:	dc000015 	stw	r16,0(sp)
   13b44:	282b883a 	mov	r21,r5
   13b48:	3029883a 	mov	r20,r6
   13b4c:	1900632e 	bgeu	r3,r4,13cdc <_fpadd_parts+0x1c8>
   13b50:	28800017 	ldw	r2,0(r5)
   13b54:	1880812e 	bgeu	r3,r2,13d5c <_fpadd_parts+0x248>
   13b58:	00c00104 	movi	r3,4
   13b5c:	20c0dc26 	beq	r4,r3,13ed0 <_fpadd_parts+0x3bc>
   13b60:	10c07e26 	beq	r2,r3,13d5c <_fpadd_parts+0x248>
   13b64:	00c00084 	movi	r3,2
   13b68:	10c06726 	beq	r2,r3,13d08 <_fpadd_parts+0x1f4>
   13b6c:	20c07b26 	beq	r4,r3,13d5c <_fpadd_parts+0x248>
   13b70:	9dc00217 	ldw	r23,8(r19)
   13b74:	28c00217 	ldw	r3,8(r5)
   13b78:	9c400317 	ldw	r17,12(r19)
   13b7c:	2bc00317 	ldw	r15,12(r5)
   13b80:	b8cdc83a 	sub	r6,r23,r3
   13b84:	9c800417 	ldw	r18,16(r19)
   13b88:	2c000417 	ldw	r16,16(r5)
   13b8c:	3009883a 	mov	r4,r6
   13b90:	30009716 	blt	r6,zero,13df0 <_fpadd_parts+0x2dc>
   13b94:	00800fc4 	movi	r2,63
   13b98:	11806b16 	blt	r2,r6,13d48 <_fpadd_parts+0x234>
   13b9c:	0100a40e 	bge	zero,r4,13e30 <_fpadd_parts+0x31c>
   13ba0:	35bff804 	addi	r22,r6,-32
   13ba4:	b000bc16 	blt	r22,zero,13e98 <_fpadd_parts+0x384>
   13ba8:	8596d83a 	srl	r11,r16,r22
   13bac:	0019883a 	mov	r12,zero
   13bb0:	0013883a 	mov	r9,zero
   13bb4:	01000044 	movi	r4,1
   13bb8:	0015883a 	mov	r10,zero
   13bbc:	b000be16 	blt	r22,zero,13eb8 <_fpadd_parts+0x3a4>
   13bc0:	2590983a 	sll	r8,r4,r22
   13bc4:	000f883a 	mov	r7,zero
   13bc8:	00bfffc4 	movi	r2,-1
   13bcc:	3889883a 	add	r4,r7,r2
   13bd0:	408b883a 	add	r5,r8,r2
   13bd4:	21cd803a 	cmpltu	r6,r4,r7
   13bd8:	314b883a 	add	r5,r6,r5
   13bdc:	7904703a 	and	r2,r15,r4
   13be0:	8146703a 	and	r3,r16,r5
   13be4:	10c4b03a 	or	r2,r2,r3
   13be8:	10000226 	beq	r2,zero,13bf4 <_fpadd_parts+0xe0>
   13bec:	02400044 	movi	r9,1
   13bf0:	0015883a 	mov	r10,zero
   13bf4:	5a5eb03a 	or	r15,r11,r9
   13bf8:	62a0b03a 	or	r16,r12,r10
   13bfc:	99400117 	ldw	r5,4(r19)
   13c00:	a8800117 	ldw	r2,4(r21)
   13c04:	28806e26 	beq	r5,r2,13dc0 <_fpadd_parts+0x2ac>
   13c08:	28006626 	beq	r5,zero,13da4 <_fpadd_parts+0x290>
   13c0c:	7c45c83a 	sub	r2,r15,r17
   13c10:	7889803a 	cmpltu	r4,r15,r2
   13c14:	8487c83a 	sub	r3,r16,r18
   13c18:	1909c83a 	sub	r4,r3,r4
   13c1c:	100d883a 	mov	r6,r2
   13c20:	200f883a 	mov	r7,r4
   13c24:	38007716 	blt	r7,zero,13e04 <_fpadd_parts+0x2f0>
   13c28:	a5c00215 	stw	r23,8(r20)
   13c2c:	a1c00415 	stw	r7,16(r20)
   13c30:	a0000115 	stw	zero,4(r20)
   13c34:	a1800315 	stw	r6,12(r20)
   13c38:	a2000317 	ldw	r8,12(r20)
   13c3c:	a2400417 	ldw	r9,16(r20)
   13c40:	00bfffc4 	movi	r2,-1
   13c44:	408b883a 	add	r5,r8,r2
   13c48:	2a09803a 	cmpltu	r4,r5,r8
   13c4c:	488d883a 	add	r6,r9,r2
   13c50:	01c40034 	movhi	r7,4096
   13c54:	39ffffc4 	addi	r7,r7,-1
   13c58:	218d883a 	add	r6,r4,r6
   13c5c:	39801736 	bltu	r7,r6,13cbc <_fpadd_parts+0x1a8>
   13c60:	31c06526 	beq	r6,r7,13df8 <_fpadd_parts+0x2e4>
   13c64:	a3000217 	ldw	r12,8(r20)
   13c68:	4209883a 	add	r4,r8,r8
   13c6c:	00bfffc4 	movi	r2,-1
   13c70:	220f803a 	cmpltu	r7,r4,r8
   13c74:	4a4b883a 	add	r5,r9,r9
   13c78:	394f883a 	add	r7,r7,r5
   13c7c:	2095883a 	add	r10,r4,r2
   13c80:	3897883a 	add	r11,r7,r2
   13c84:	510d803a 	cmpltu	r6,r10,r4
   13c88:	6099883a 	add	r12,r12,r2
   13c8c:	32d7883a 	add	r11,r6,r11
   13c90:	00840034 	movhi	r2,4096
   13c94:	10bfffc4 	addi	r2,r2,-1
   13c98:	2011883a 	mov	r8,r4
   13c9c:	3813883a 	mov	r9,r7
   13ca0:	a1000315 	stw	r4,12(r20)
   13ca4:	a1c00415 	stw	r7,16(r20)
   13ca8:	a3000215 	stw	r12,8(r20)
   13cac:	12c00336 	bltu	r2,r11,13cbc <_fpadd_parts+0x1a8>
   13cb0:	58bfed1e 	bne	r11,r2,13c68 <_fpadd_parts+0x154>
   13cb4:	00bfff84 	movi	r2,-2
   13cb8:	12bfeb2e 	bgeu	r2,r10,13c68 <_fpadd_parts+0x154>
   13cbc:	a2800417 	ldw	r10,16(r20)
   13cc0:	008000c4 	movi	r2,3
   13cc4:	00c80034 	movhi	r3,8192
   13cc8:	18ffffc4 	addi	r3,r3,-1
   13ccc:	a2400317 	ldw	r9,12(r20)
   13cd0:	a0800015 	stw	r2,0(r20)
   13cd4:	1a802336 	bltu	r3,r10,13d64 <_fpadd_parts+0x250>
   13cd8:	a027883a 	mov	r19,r20
   13cdc:	9805883a 	mov	r2,r19
   13ce0:	ddc00717 	ldw	r23,28(sp)
   13ce4:	dd800617 	ldw	r22,24(sp)
   13ce8:	dd400517 	ldw	r21,20(sp)
   13cec:	dd000417 	ldw	r20,16(sp)
   13cf0:	dcc00317 	ldw	r19,12(sp)
   13cf4:	dc800217 	ldw	r18,8(sp)
   13cf8:	dc400117 	ldw	r17,4(sp)
   13cfc:	dc000017 	ldw	r16,0(sp)
   13d00:	dec00804 	addi	sp,sp,32
   13d04:	f800283a 	ret
   13d08:	20fff41e 	bne	r4,r3,13cdc <_fpadd_parts+0x1c8>
   13d0c:	31000015 	stw	r4,0(r6)
   13d10:	98800117 	ldw	r2,4(r19)
   13d14:	30800115 	stw	r2,4(r6)
   13d18:	98c00217 	ldw	r3,8(r19)
   13d1c:	30c00215 	stw	r3,8(r6)
   13d20:	98800317 	ldw	r2,12(r19)
   13d24:	30800315 	stw	r2,12(r6)
   13d28:	98c00417 	ldw	r3,16(r19)
   13d2c:	30c00415 	stw	r3,16(r6)
   13d30:	98800117 	ldw	r2,4(r19)
   13d34:	28c00117 	ldw	r3,4(r5)
   13d38:	3027883a 	mov	r19,r6
   13d3c:	10c4703a 	and	r2,r2,r3
   13d40:	30800115 	stw	r2,4(r6)
   13d44:	003fe506 	br	13cdc <_fpadd_parts+0x1c8>
   13d48:	1dc02616 	blt	r3,r23,13de4 <_fpadd_parts+0x2d0>
   13d4c:	0023883a 	mov	r17,zero
   13d50:	182f883a 	mov	r23,r3
   13d54:	0025883a 	mov	r18,zero
   13d58:	003fa806 	br	13bfc <_fpadd_parts+0xe8>
   13d5c:	a827883a 	mov	r19,r21
   13d60:	003fde06 	br	13cdc <_fpadd_parts+0x1c8>
   13d64:	01800044 	movi	r6,1
   13d68:	500497fa 	slli	r2,r10,31
   13d6c:	4808d07a 	srli	r4,r9,1
   13d70:	518ad83a 	srl	r5,r10,r6
   13d74:	a2000217 	ldw	r8,8(r20)
   13d78:	1108b03a 	or	r4,r2,r4
   13d7c:	0007883a 	mov	r3,zero
   13d80:	4984703a 	and	r2,r9,r6
   13d84:	208cb03a 	or	r6,r4,r2
   13d88:	28ceb03a 	or	r7,r5,r3
   13d8c:	42000044 	addi	r8,r8,1
   13d90:	a027883a 	mov	r19,r20
   13d94:	a1c00415 	stw	r7,16(r20)
   13d98:	a2000215 	stw	r8,8(r20)
   13d9c:	a1800315 	stw	r6,12(r20)
   13da0:	003fce06 	br	13cdc <_fpadd_parts+0x1c8>
   13da4:	8bc5c83a 	sub	r2,r17,r15
   13da8:	8889803a 	cmpltu	r4,r17,r2
   13dac:	9407c83a 	sub	r3,r18,r16
   13db0:	1909c83a 	sub	r4,r3,r4
   13db4:	100d883a 	mov	r6,r2
   13db8:	200f883a 	mov	r7,r4
   13dbc:	003f9906 	br	13c24 <_fpadd_parts+0x110>
   13dc0:	7c45883a 	add	r2,r15,r17
   13dc4:	13c9803a 	cmpltu	r4,r2,r15
   13dc8:	8487883a 	add	r3,r16,r18
   13dcc:	20c9883a 	add	r4,r4,r3
   13dd0:	a1400115 	stw	r5,4(r20)
   13dd4:	a5c00215 	stw	r23,8(r20)
   13dd8:	a0800315 	stw	r2,12(r20)
   13ddc:	a1000415 	stw	r4,16(r20)
   13de0:	003fb606 	br	13cbc <_fpadd_parts+0x1a8>
   13de4:	001f883a 	mov	r15,zero
   13de8:	0021883a 	mov	r16,zero
   13dec:	003f8306 	br	13bfc <_fpadd_parts+0xe8>
   13df0:	018dc83a 	sub	r6,zero,r6
   13df4:	003f6706 	br	13b94 <_fpadd_parts+0x80>
   13df8:	00bfff84 	movi	r2,-2
   13dfc:	117faf36 	bltu	r2,r5,13cbc <_fpadd_parts+0x1a8>
   13e00:	003f9806 	br	13c64 <_fpadd_parts+0x150>
   13e04:	0005883a 	mov	r2,zero
   13e08:	1189c83a 	sub	r4,r2,r6
   13e0c:	1105803a 	cmpltu	r2,r2,r4
   13e10:	01cbc83a 	sub	r5,zero,r7
   13e14:	2885c83a 	sub	r2,r5,r2
   13e18:	01800044 	movi	r6,1
   13e1c:	a1800115 	stw	r6,4(r20)
   13e20:	a5c00215 	stw	r23,8(r20)
   13e24:	a1000315 	stw	r4,12(r20)
   13e28:	a0800415 	stw	r2,16(r20)
   13e2c:	003f8206 	br	13c38 <_fpadd_parts+0x124>
   13e30:	203f7226 	beq	r4,zero,13bfc <_fpadd_parts+0xe8>
   13e34:	35bff804 	addi	r22,r6,-32
   13e38:	b9af883a 	add	r23,r23,r6
   13e3c:	b0003116 	blt	r22,zero,13f04 <_fpadd_parts+0x3f0>
   13e40:	959ad83a 	srl	r13,r18,r22
   13e44:	001d883a 	mov	r14,zero
   13e48:	000f883a 	mov	r7,zero
   13e4c:	01000044 	movi	r4,1
   13e50:	0011883a 	mov	r8,zero
   13e54:	b0002516 	blt	r22,zero,13eec <_fpadd_parts+0x3d8>
   13e58:	2594983a 	sll	r10,r4,r22
   13e5c:	0013883a 	mov	r9,zero
   13e60:	00bfffc4 	movi	r2,-1
   13e64:	4889883a 	add	r4,r9,r2
   13e68:	508b883a 	add	r5,r10,r2
   13e6c:	224d803a 	cmpltu	r6,r4,r9
   13e70:	314b883a 	add	r5,r6,r5
   13e74:	8904703a 	and	r2,r17,r4
   13e78:	9146703a 	and	r3,r18,r5
   13e7c:	10c4b03a 	or	r2,r2,r3
   13e80:	10000226 	beq	r2,zero,13e8c <_fpadd_parts+0x378>
   13e84:	01c00044 	movi	r7,1
   13e88:	0011883a 	mov	r8,zero
   13e8c:	69e2b03a 	or	r17,r13,r7
   13e90:	7224b03a 	or	r18,r14,r8
   13e94:	003f5906 	br	13bfc <_fpadd_parts+0xe8>
   13e98:	8407883a 	add	r3,r16,r16
   13e9c:	008007c4 	movi	r2,31
   13ea0:	1185c83a 	sub	r2,r2,r6
   13ea4:	1886983a 	sll	r3,r3,r2
   13ea8:	7996d83a 	srl	r11,r15,r6
   13eac:	8198d83a 	srl	r12,r16,r6
   13eb0:	1ad6b03a 	or	r11,r3,r11
   13eb4:	003f3e06 	br	13bb0 <_fpadd_parts+0x9c>
   13eb8:	2006d07a 	srli	r3,r4,1
   13ebc:	008007c4 	movi	r2,31
   13ec0:	1185c83a 	sub	r2,r2,r6
   13ec4:	1890d83a 	srl	r8,r3,r2
   13ec8:	218e983a 	sll	r7,r4,r6
   13ecc:	003f3e06 	br	13bc8 <_fpadd_parts+0xb4>
   13ed0:	113f821e 	bne	r2,r4,13cdc <_fpadd_parts+0x1c8>
   13ed4:	28c00117 	ldw	r3,4(r5)
   13ed8:	98800117 	ldw	r2,4(r19)
   13edc:	10ff7f26 	beq	r2,r3,13cdc <_fpadd_parts+0x1c8>
   13ee0:	04c00074 	movhi	r19,1
   13ee4:	9cde7b04 	addi	r19,r19,31212
   13ee8:	003f7c06 	br	13cdc <_fpadd_parts+0x1c8>
   13eec:	2006d07a 	srli	r3,r4,1
   13ef0:	008007c4 	movi	r2,31
   13ef4:	1185c83a 	sub	r2,r2,r6
   13ef8:	1894d83a 	srl	r10,r3,r2
   13efc:	2192983a 	sll	r9,r4,r6
   13f00:	003fd706 	br	13e60 <_fpadd_parts+0x34c>
   13f04:	9487883a 	add	r3,r18,r18
   13f08:	008007c4 	movi	r2,31
   13f0c:	1185c83a 	sub	r2,r2,r6
   13f10:	1886983a 	sll	r3,r3,r2
   13f14:	899ad83a 	srl	r13,r17,r6
   13f18:	919cd83a 	srl	r14,r18,r6
   13f1c:	1b5ab03a 	or	r13,r3,r13
   13f20:	003fc906 	br	13e48 <_fpadd_parts+0x334>

00013f24 <__subdf3>:
   13f24:	deffea04 	addi	sp,sp,-88
   13f28:	dcc01415 	stw	r19,80(sp)
   13f2c:	dcc00404 	addi	r19,sp,16
   13f30:	2011883a 	mov	r8,r4
   13f34:	2813883a 	mov	r9,r5
   13f38:	dc401315 	stw	r17,76(sp)
   13f3c:	d809883a 	mov	r4,sp
   13f40:	980b883a 	mov	r5,r19
   13f44:	dc400904 	addi	r17,sp,36
   13f48:	dfc01515 	stw	ra,84(sp)
   13f4c:	da400115 	stw	r9,4(sp)
   13f50:	d9c00315 	stw	r7,12(sp)
   13f54:	da000015 	stw	r8,0(sp)
   13f58:	d9800215 	stw	r6,8(sp)
   13f5c:	0014d6c0 	call	14d6c <__unpack_d>
   13f60:	d9000204 	addi	r4,sp,8
   13f64:	880b883a 	mov	r5,r17
   13f68:	0014d6c0 	call	14d6c <__unpack_d>
   13f6c:	d8800a17 	ldw	r2,40(sp)
   13f70:	880b883a 	mov	r5,r17
   13f74:	9809883a 	mov	r4,r19
   13f78:	d9800e04 	addi	r6,sp,56
   13f7c:	1080005c 	xori	r2,r2,1
   13f80:	d8800a15 	stw	r2,40(sp)
   13f84:	0013b140 	call	13b14 <_fpadd_parts>
   13f88:	1009883a 	mov	r4,r2
   13f8c:	0014a580 	call	14a58 <__pack_d>
   13f90:	dfc01517 	ldw	ra,84(sp)
   13f94:	dcc01417 	ldw	r19,80(sp)
   13f98:	dc401317 	ldw	r17,76(sp)
   13f9c:	dec01604 	addi	sp,sp,88
   13fa0:	f800283a 	ret

00013fa4 <__adddf3>:
   13fa4:	deffea04 	addi	sp,sp,-88
   13fa8:	dcc01415 	stw	r19,80(sp)
   13fac:	dcc00404 	addi	r19,sp,16
   13fb0:	2011883a 	mov	r8,r4
   13fb4:	2813883a 	mov	r9,r5
   13fb8:	dc401315 	stw	r17,76(sp)
   13fbc:	d809883a 	mov	r4,sp
   13fc0:	980b883a 	mov	r5,r19
   13fc4:	dc400904 	addi	r17,sp,36
   13fc8:	dfc01515 	stw	ra,84(sp)
   13fcc:	da400115 	stw	r9,4(sp)
   13fd0:	d9c00315 	stw	r7,12(sp)
   13fd4:	da000015 	stw	r8,0(sp)
   13fd8:	d9800215 	stw	r6,8(sp)
   13fdc:	0014d6c0 	call	14d6c <__unpack_d>
   13fe0:	d9000204 	addi	r4,sp,8
   13fe4:	880b883a 	mov	r5,r17
   13fe8:	0014d6c0 	call	14d6c <__unpack_d>
   13fec:	d9800e04 	addi	r6,sp,56
   13ff0:	9809883a 	mov	r4,r19
   13ff4:	880b883a 	mov	r5,r17
   13ff8:	0013b140 	call	13b14 <_fpadd_parts>
   13ffc:	1009883a 	mov	r4,r2
   14000:	0014a580 	call	14a58 <__pack_d>
   14004:	dfc01517 	ldw	ra,84(sp)
   14008:	dcc01417 	ldw	r19,80(sp)
   1400c:	dc401317 	ldw	r17,76(sp)
   14010:	dec01604 	addi	sp,sp,88
   14014:	f800283a 	ret

00014018 <__muldf3>:
   14018:	deffe004 	addi	sp,sp,-128
   1401c:	dc401815 	stw	r17,96(sp)
   14020:	dc400404 	addi	r17,sp,16
   14024:	2011883a 	mov	r8,r4
   14028:	2813883a 	mov	r9,r5
   1402c:	dc001715 	stw	r16,92(sp)
   14030:	d809883a 	mov	r4,sp
   14034:	880b883a 	mov	r5,r17
   14038:	dc000904 	addi	r16,sp,36
   1403c:	dfc01f15 	stw	ra,124(sp)
   14040:	da400115 	stw	r9,4(sp)
   14044:	d9c00315 	stw	r7,12(sp)
   14048:	da000015 	stw	r8,0(sp)
   1404c:	d9800215 	stw	r6,8(sp)
   14050:	ddc01e15 	stw	r23,120(sp)
   14054:	dd801d15 	stw	r22,116(sp)
   14058:	dd401c15 	stw	r21,112(sp)
   1405c:	dd001b15 	stw	r20,108(sp)
   14060:	dcc01a15 	stw	r19,104(sp)
   14064:	dc801915 	stw	r18,100(sp)
   14068:	0014d6c0 	call	14d6c <__unpack_d>
   1406c:	d9000204 	addi	r4,sp,8
   14070:	800b883a 	mov	r5,r16
   14074:	0014d6c0 	call	14d6c <__unpack_d>
   14078:	d9000417 	ldw	r4,16(sp)
   1407c:	00800044 	movi	r2,1
   14080:	1100102e 	bgeu	r2,r4,140c4 <__muldf3+0xac>
   14084:	d8c00917 	ldw	r3,36(sp)
   14088:	10c0062e 	bgeu	r2,r3,140a4 <__muldf3+0x8c>
   1408c:	00800104 	movi	r2,4
   14090:	20800a26 	beq	r4,r2,140bc <__muldf3+0xa4>
   14094:	1880cc26 	beq	r3,r2,143c8 <__muldf3+0x3b0>
   14098:	00800084 	movi	r2,2
   1409c:	20800926 	beq	r4,r2,140c4 <__muldf3+0xac>
   140a0:	1880191e 	bne	r3,r2,14108 <__muldf3+0xf0>
   140a4:	d8c00a17 	ldw	r3,40(sp)
   140a8:	d8800517 	ldw	r2,20(sp)
   140ac:	8009883a 	mov	r4,r16
   140b0:	10c4c03a 	cmpne	r2,r2,r3
   140b4:	d8800a15 	stw	r2,40(sp)
   140b8:	00000706 	br	140d8 <__muldf3+0xc0>
   140bc:	00800084 	movi	r2,2
   140c0:	1880c326 	beq	r3,r2,143d0 <__muldf3+0x3b8>
   140c4:	d8800517 	ldw	r2,20(sp)
   140c8:	d8c00a17 	ldw	r3,40(sp)
   140cc:	8809883a 	mov	r4,r17
   140d0:	10c4c03a 	cmpne	r2,r2,r3
   140d4:	d8800515 	stw	r2,20(sp)
   140d8:	0014a580 	call	14a58 <__pack_d>
   140dc:	dfc01f17 	ldw	ra,124(sp)
   140e0:	ddc01e17 	ldw	r23,120(sp)
   140e4:	dd801d17 	ldw	r22,116(sp)
   140e8:	dd401c17 	ldw	r21,112(sp)
   140ec:	dd001b17 	ldw	r20,108(sp)
   140f0:	dcc01a17 	ldw	r19,104(sp)
   140f4:	dc801917 	ldw	r18,100(sp)
   140f8:	dc401817 	ldw	r17,96(sp)
   140fc:	dc001717 	ldw	r16,92(sp)
   14100:	dec02004 	addi	sp,sp,128
   14104:	f800283a 	ret
   14108:	dd800717 	ldw	r22,28(sp)
   1410c:	dc800c17 	ldw	r18,48(sp)
   14110:	002b883a 	mov	r21,zero
   14114:	0023883a 	mov	r17,zero
   14118:	a80b883a 	mov	r5,r21
   1411c:	b00d883a 	mov	r6,r22
   14120:	880f883a 	mov	r7,r17
   14124:	ddc00817 	ldw	r23,32(sp)
   14128:	dcc00d17 	ldw	r19,52(sp)
   1412c:	9009883a 	mov	r4,r18
   14130:	00145e40 	call	145e4 <__muldi3>
   14134:	001b883a 	mov	r13,zero
   14138:	680f883a 	mov	r7,r13
   1413c:	b009883a 	mov	r4,r22
   14140:	000b883a 	mov	r5,zero
   14144:	980d883a 	mov	r6,r19
   14148:	b82d883a 	mov	r22,r23
   1414c:	002f883a 	mov	r23,zero
   14150:	db401615 	stw	r13,88(sp)
   14154:	d8801315 	stw	r2,76(sp)
   14158:	d8c01415 	stw	r3,80(sp)
   1415c:	dcc01515 	stw	r19,84(sp)
   14160:	00145e40 	call	145e4 <__muldi3>
   14164:	b00d883a 	mov	r6,r22
   14168:	000b883a 	mov	r5,zero
   1416c:	9009883a 	mov	r4,r18
   14170:	b80f883a 	mov	r7,r23
   14174:	1021883a 	mov	r16,r2
   14178:	1823883a 	mov	r17,r3
   1417c:	00145e40 	call	145e4 <__muldi3>
   14180:	8085883a 	add	r2,r16,r2
   14184:	140d803a 	cmpltu	r6,r2,r16
   14188:	88c7883a 	add	r3,r17,r3
   1418c:	30cd883a 	add	r6,r6,r3
   14190:	1029883a 	mov	r20,r2
   14194:	302b883a 	mov	r21,r6
   14198:	da801317 	ldw	r10,76(sp)
   1419c:	dac01417 	ldw	r11,80(sp)
   141a0:	db001517 	ldw	r12,84(sp)
   141a4:	db401617 	ldw	r13,88(sp)
   141a8:	3440612e 	bgeu	r6,r17,14330 <__muldf3+0x318>
   141ac:	0009883a 	mov	r4,zero
   141b0:	5105883a 	add	r2,r10,r4
   141b4:	128d803a 	cmpltu	r6,r2,r10
   141b8:	5d07883a 	add	r3,r11,r20
   141bc:	30cd883a 	add	r6,r6,r3
   141c0:	0021883a 	mov	r16,zero
   141c4:	04400044 	movi	r17,1
   141c8:	1025883a 	mov	r18,r2
   141cc:	3027883a 	mov	r19,r6
   141d0:	32c06236 	bltu	r6,r11,1435c <__muldf3+0x344>
   141d4:	59807a26 	beq	r11,r6,143c0 <__muldf3+0x3a8>
   141d8:	680b883a 	mov	r5,r13
   141dc:	b80f883a 	mov	r7,r23
   141e0:	6009883a 	mov	r4,r12
   141e4:	b00d883a 	mov	r6,r22
   141e8:	00145e40 	call	145e4 <__muldi3>
   141ec:	1009883a 	mov	r4,r2
   141f0:	000f883a 	mov	r7,zero
   141f4:	1545883a 	add	r2,r2,r21
   141f8:	1111803a 	cmpltu	r8,r2,r4
   141fc:	19c7883a 	add	r3,r3,r7
   14200:	40c7883a 	add	r3,r8,r3
   14204:	88cb883a 	add	r5,r17,r3
   14208:	d8c00617 	ldw	r3,24(sp)
   1420c:	8089883a 	add	r4,r16,r2
   14210:	d8800b17 	ldw	r2,44(sp)
   14214:	18c00104 	addi	r3,r3,4
   14218:	240d803a 	cmpltu	r6,r4,r16
   1421c:	10c7883a 	add	r3,r2,r3
   14220:	2013883a 	mov	r9,r4
   14224:	d8800a17 	ldw	r2,40(sp)
   14228:	d9000517 	ldw	r4,20(sp)
   1422c:	314d883a 	add	r6,r6,r5
   14230:	3015883a 	mov	r10,r6
   14234:	2088c03a 	cmpne	r4,r4,r2
   14238:	00880034 	movhi	r2,8192
   1423c:	10bfffc4 	addi	r2,r2,-1
   14240:	d9000f15 	stw	r4,60(sp)
   14244:	d8c01015 	stw	r3,64(sp)
   14248:	1180162e 	bgeu	r2,r6,142a4 <__muldf3+0x28c>
   1424c:	1811883a 	mov	r8,r3
   14250:	101f883a 	mov	r15,r2
   14254:	980497fa 	slli	r2,r19,31
   14258:	9016d07a 	srli	r11,r18,1
   1425c:	500697fa 	slli	r3,r10,31
   14260:	480cd07a 	srli	r6,r9,1
   14264:	500ed07a 	srli	r7,r10,1
   14268:	12d6b03a 	or	r11,r2,r11
   1426c:	00800044 	movi	r2,1
   14270:	198cb03a 	or	r6,r3,r6
   14274:	4888703a 	and	r4,r9,r2
   14278:	9818d07a 	srli	r12,r19,1
   1427c:	001b883a 	mov	r13,zero
   14280:	03a00034 	movhi	r14,32768
   14284:	3013883a 	mov	r9,r6
   14288:	3815883a 	mov	r10,r7
   1428c:	4091883a 	add	r8,r8,r2
   14290:	20000226 	beq	r4,zero,1429c <__muldf3+0x284>
   14294:	5b64b03a 	or	r18,r11,r13
   14298:	63a6b03a 	or	r19,r12,r14
   1429c:	7abfed36 	bltu	r15,r10,14254 <__muldf3+0x23c>
   142a0:	da001015 	stw	r8,64(sp)
   142a4:	00840034 	movhi	r2,4096
   142a8:	10bfffc4 	addi	r2,r2,-1
   142ac:	12801436 	bltu	r2,r10,14300 <__muldf3+0x2e8>
   142b0:	da001017 	ldw	r8,64(sp)
   142b4:	101f883a 	mov	r15,r2
   142b8:	4a45883a 	add	r2,r9,r9
   142bc:	124d803a 	cmpltu	r6,r2,r9
   142c0:	5287883a 	add	r3,r10,r10
   142c4:	9497883a 	add	r11,r18,r18
   142c8:	5c8f803a 	cmpltu	r7,r11,r18
   142cc:	9cd9883a 	add	r12,r19,r19
   142d0:	01000044 	movi	r4,1
   142d4:	30cd883a 	add	r6,r6,r3
   142d8:	3b0f883a 	add	r7,r7,r12
   142dc:	423fffc4 	addi	r8,r8,-1
   142e0:	1013883a 	mov	r9,r2
   142e4:	3015883a 	mov	r10,r6
   142e8:	111ab03a 	or	r13,r2,r4
   142ec:	98003016 	blt	r19,zero,143b0 <__muldf3+0x398>
   142f0:	5825883a 	mov	r18,r11
   142f4:	3827883a 	mov	r19,r7
   142f8:	7abfef2e 	bgeu	r15,r10,142b8 <__muldf3+0x2a0>
   142fc:	da001015 	stw	r8,64(sp)
   14300:	00803fc4 	movi	r2,255
   14304:	488e703a 	and	r7,r9,r2
   14308:	00802004 	movi	r2,128
   1430c:	0007883a 	mov	r3,zero
   14310:	0011883a 	mov	r8,zero
   14314:	38801826 	beq	r7,r2,14378 <__muldf3+0x360>
   14318:	008000c4 	movi	r2,3
   1431c:	d9000e04 	addi	r4,sp,56
   14320:	da801215 	stw	r10,72(sp)
   14324:	d8800e15 	stw	r2,56(sp)
   14328:	da401115 	stw	r9,68(sp)
   1432c:	003f6a06 	br	140d8 <__muldf3+0xc0>
   14330:	89802126 	beq	r17,r6,143b8 <__muldf3+0x3a0>
   14334:	0009883a 	mov	r4,zero
   14338:	5105883a 	add	r2,r10,r4
   1433c:	128d803a 	cmpltu	r6,r2,r10
   14340:	5d07883a 	add	r3,r11,r20
   14344:	30cd883a 	add	r6,r6,r3
   14348:	0021883a 	mov	r16,zero
   1434c:	0023883a 	mov	r17,zero
   14350:	1025883a 	mov	r18,r2
   14354:	3027883a 	mov	r19,r6
   14358:	32ff9e2e 	bgeu	r6,r11,141d4 <__muldf3+0x1bc>
   1435c:	00800044 	movi	r2,1
   14360:	8089883a 	add	r4,r16,r2
   14364:	240d803a 	cmpltu	r6,r4,r16
   14368:	344d883a 	add	r6,r6,r17
   1436c:	2021883a 	mov	r16,r4
   14370:	3023883a 	mov	r17,r6
   14374:	003f9806 	br	141d8 <__muldf3+0x1c0>
   14378:	403fe71e 	bne	r8,zero,14318 <__muldf3+0x300>
   1437c:	01004004 	movi	r4,256
   14380:	4904703a 	and	r2,r9,r4
   14384:	10c4b03a 	or	r2,r2,r3
   14388:	103fe31e 	bne	r2,zero,14318 <__muldf3+0x300>
   1438c:	94c4b03a 	or	r2,r18,r19
   14390:	103fe126 	beq	r2,zero,14318 <__muldf3+0x300>
   14394:	49c5883a 	add	r2,r9,r7
   14398:	1251803a 	cmpltu	r8,r2,r9
   1439c:	4291883a 	add	r8,r8,r10
   143a0:	013fc004 	movi	r4,-256
   143a4:	1112703a 	and	r9,r2,r4
   143a8:	4015883a 	mov	r10,r8
   143ac:	003fda06 	br	14318 <__muldf3+0x300>
   143b0:	6813883a 	mov	r9,r13
   143b4:	003fce06 	br	142f0 <__muldf3+0x2d8>
   143b8:	143f7c36 	bltu	r2,r16,141ac <__muldf3+0x194>
   143bc:	003fdd06 	br	14334 <__muldf3+0x31c>
   143c0:	12bf852e 	bgeu	r2,r10,141d8 <__muldf3+0x1c0>
   143c4:	003fe506 	br	1435c <__muldf3+0x344>
   143c8:	00800084 	movi	r2,2
   143cc:	20bf351e 	bne	r4,r2,140a4 <__muldf3+0x8c>
   143d0:	01000074 	movhi	r4,1
   143d4:	211e7b04 	addi	r4,r4,31212
   143d8:	003f3f06 	br	140d8 <__muldf3+0xc0>

000143dc <__floatsidf>:
   143dc:	2006d7fa 	srli	r3,r4,31
   143e0:	defff604 	addi	sp,sp,-40
   143e4:	008000c4 	movi	r2,3
   143e8:	dfc00915 	stw	ra,36(sp)
   143ec:	dcc00815 	stw	r19,32(sp)
   143f0:	dc800715 	stw	r18,28(sp)
   143f4:	dc400615 	stw	r17,24(sp)
   143f8:	dc000515 	stw	r16,20(sp)
   143fc:	d8800015 	stw	r2,0(sp)
   14400:	d8c00115 	stw	r3,4(sp)
   14404:	20000f1e 	bne	r4,zero,14444 <__floatsidf+0x68>
   14408:	00800084 	movi	r2,2
   1440c:	d8800015 	stw	r2,0(sp)
   14410:	d809883a 	mov	r4,sp
   14414:	0014a580 	call	14a58 <__pack_d>
   14418:	1009883a 	mov	r4,r2
   1441c:	180b883a 	mov	r5,r3
   14420:	2005883a 	mov	r2,r4
   14424:	2807883a 	mov	r3,r5
   14428:	dfc00917 	ldw	ra,36(sp)
   1442c:	dcc00817 	ldw	r19,32(sp)
   14430:	dc800717 	ldw	r18,28(sp)
   14434:	dc400617 	ldw	r17,24(sp)
   14438:	dc000517 	ldw	r16,20(sp)
   1443c:	dec00a04 	addi	sp,sp,40
   14440:	f800283a 	ret
   14444:	00800f04 	movi	r2,60
   14448:	1807003a 	cmpeq	r3,r3,zero
   1444c:	d8800215 	stw	r2,8(sp)
   14450:	18001126 	beq	r3,zero,14498 <__floatsidf+0xbc>
   14454:	0027883a 	mov	r19,zero
   14458:	2025883a 	mov	r18,r4
   1445c:	d9000315 	stw	r4,12(sp)
   14460:	dcc00415 	stw	r19,16(sp)
   14464:	00147080 	call	14708 <__clzsi2>
   14468:	11000744 	addi	r4,r2,29
   1446c:	013fe80e 	bge	zero,r4,14410 <__floatsidf+0x34>
   14470:	10bfff44 	addi	r2,r2,-3
   14474:	10000c16 	blt	r2,zero,144a8 <__floatsidf+0xcc>
   14478:	90a2983a 	sll	r17,r18,r2
   1447c:	0021883a 	mov	r16,zero
   14480:	d8800217 	ldw	r2,8(sp)
   14484:	dc400415 	stw	r17,16(sp)
   14488:	dc000315 	stw	r16,12(sp)
   1448c:	1105c83a 	sub	r2,r2,r4
   14490:	d8800215 	stw	r2,8(sp)
   14494:	003fde06 	br	14410 <__floatsidf+0x34>
   14498:	00a00034 	movhi	r2,32768
   1449c:	20800a26 	beq	r4,r2,144c8 <__floatsidf+0xec>
   144a0:	0109c83a 	sub	r4,zero,r4
   144a4:	003feb06 	br	14454 <__floatsidf+0x78>
   144a8:	9006d07a 	srli	r3,r18,1
   144ac:	008007c4 	movi	r2,31
   144b0:	1105c83a 	sub	r2,r2,r4
   144b4:	1886d83a 	srl	r3,r3,r2
   144b8:	9922983a 	sll	r17,r19,r4
   144bc:	9120983a 	sll	r16,r18,r4
   144c0:	1c62b03a 	or	r17,r3,r17
   144c4:	003fee06 	br	14480 <__floatsidf+0xa4>
   144c8:	0009883a 	mov	r4,zero
   144cc:	01707834 	movhi	r5,49632
   144d0:	003fd306 	br	14420 <__floatsidf+0x44>

000144d4 <__fixdfsi>:
   144d4:	defff804 	addi	sp,sp,-32
   144d8:	2005883a 	mov	r2,r4
   144dc:	2807883a 	mov	r3,r5
   144e0:	d809883a 	mov	r4,sp
   144e4:	d9400204 	addi	r5,sp,8
   144e8:	d8c00115 	stw	r3,4(sp)
   144ec:	d8800015 	stw	r2,0(sp)
   144f0:	dfc00715 	stw	ra,28(sp)
   144f4:	0014d6c0 	call	14d6c <__unpack_d>
   144f8:	d8c00217 	ldw	r3,8(sp)
   144fc:	00800084 	movi	r2,2
   14500:	1880051e 	bne	r3,r2,14518 <__fixdfsi+0x44>
   14504:	0007883a 	mov	r3,zero
   14508:	1805883a 	mov	r2,r3
   1450c:	dfc00717 	ldw	ra,28(sp)
   14510:	dec00804 	addi	sp,sp,32
   14514:	f800283a 	ret
   14518:	00800044 	movi	r2,1
   1451c:	10fff92e 	bgeu	r2,r3,14504 <__fixdfsi+0x30>
   14520:	00800104 	movi	r2,4
   14524:	18800426 	beq	r3,r2,14538 <__fixdfsi+0x64>
   14528:	d8c00417 	ldw	r3,16(sp)
   1452c:	183ff516 	blt	r3,zero,14504 <__fixdfsi+0x30>
   14530:	00800784 	movi	r2,30
   14534:	10c0080e 	bge	r2,r3,14558 <__fixdfsi+0x84>
   14538:	d8800317 	ldw	r2,12(sp)
   1453c:	1000121e 	bne	r2,zero,14588 <__fixdfsi+0xb4>
   14540:	00e00034 	movhi	r3,32768
   14544:	18ffffc4 	addi	r3,r3,-1
   14548:	1805883a 	mov	r2,r3
   1454c:	dfc00717 	ldw	ra,28(sp)
   14550:	dec00804 	addi	sp,sp,32
   14554:	f800283a 	ret
   14558:	00800f04 	movi	r2,60
   1455c:	10d1c83a 	sub	r8,r2,r3
   14560:	40bff804 	addi	r2,r8,-32
   14564:	d9800517 	ldw	r6,20(sp)
   14568:	d9c00617 	ldw	r7,24(sp)
   1456c:	10000816 	blt	r2,zero,14590 <__fixdfsi+0xbc>
   14570:	3888d83a 	srl	r4,r7,r2
   14574:	d8800317 	ldw	r2,12(sp)
   14578:	2007883a 	mov	r3,r4
   1457c:	103fe226 	beq	r2,zero,14508 <__fixdfsi+0x34>
   14580:	0107c83a 	sub	r3,zero,r4
   14584:	003fe006 	br	14508 <__fixdfsi+0x34>
   14588:	00e00034 	movhi	r3,32768
   1458c:	003fde06 	br	14508 <__fixdfsi+0x34>
   14590:	39c7883a 	add	r3,r7,r7
   14594:	008007c4 	movi	r2,31
   14598:	1205c83a 	sub	r2,r2,r8
   1459c:	1886983a 	sll	r3,r3,r2
   145a0:	3208d83a 	srl	r4,r6,r8
   145a4:	1908b03a 	or	r4,r3,r4
   145a8:	003ff206 	br	14574 <__fixdfsi+0xa0>

000145ac <__mulsi3>:
   145ac:	20000a26 	beq	r4,zero,145d8 <__mulsi3+0x2c>
   145b0:	0007883a 	mov	r3,zero
   145b4:	2080004c 	andi	r2,r4,1
   145b8:	1005003a 	cmpeq	r2,r2,zero
   145bc:	2008d07a 	srli	r4,r4,1
   145c0:	1000011e 	bne	r2,zero,145c8 <__mulsi3+0x1c>
   145c4:	1947883a 	add	r3,r3,r5
   145c8:	294b883a 	add	r5,r5,r5
   145cc:	203ff91e 	bne	r4,zero,145b4 <__mulsi3+0x8>
   145d0:	1805883a 	mov	r2,r3
   145d4:	f800283a 	ret
   145d8:	0007883a 	mov	r3,zero
   145dc:	1805883a 	mov	r2,r3
   145e0:	f800283a 	ret

000145e4 <__muldi3>:
   145e4:	defff204 	addi	sp,sp,-56
   145e8:	df000c15 	stw	fp,48(sp)
   145ec:	3038d43a 	srli	fp,r6,16
   145f0:	dd000815 	stw	r20,32(sp)
   145f4:	dc400515 	stw	r17,20(sp)
   145f8:	2028d43a 	srli	r20,r4,16
   145fc:	247fffcc 	andi	r17,r4,65535
   14600:	dc000415 	stw	r16,16(sp)
   14604:	343fffcc 	andi	r16,r6,65535
   14608:	dcc00715 	stw	r19,28(sp)
   1460c:	d9000015 	stw	r4,0(sp)
   14610:	2827883a 	mov	r19,r5
   14614:	8809883a 	mov	r4,r17
   14618:	d9400115 	stw	r5,4(sp)
   1461c:	800b883a 	mov	r5,r16
   14620:	d9800215 	stw	r6,8(sp)
   14624:	dfc00d15 	stw	ra,52(sp)
   14628:	d9c00315 	stw	r7,12(sp)
   1462c:	dd800a15 	stw	r22,40(sp)
   14630:	dd400915 	stw	r21,36(sp)
   14634:	302d883a 	mov	r22,r6
   14638:	ddc00b15 	stw	r23,44(sp)
   1463c:	dc800615 	stw	r18,24(sp)
   14640:	00145ac0 	call	145ac <__mulsi3>
   14644:	8809883a 	mov	r4,r17
   14648:	e00b883a 	mov	r5,fp
   1464c:	102b883a 	mov	r21,r2
   14650:	00145ac0 	call	145ac <__mulsi3>
   14654:	800b883a 	mov	r5,r16
   14658:	a009883a 	mov	r4,r20
   1465c:	1023883a 	mov	r17,r2
   14660:	00145ac0 	call	145ac <__mulsi3>
   14664:	a009883a 	mov	r4,r20
   14668:	e00b883a 	mov	r5,fp
   1466c:	1021883a 	mov	r16,r2
   14670:	00145ac0 	call	145ac <__mulsi3>
   14674:	a8ffffcc 	andi	r3,r21,65535
   14678:	a82ad43a 	srli	r21,r21,16
   1467c:	8c23883a 	add	r17,r17,r16
   14680:	1011883a 	mov	r8,r2
   14684:	ac6b883a 	add	r21,r21,r17
   14688:	a804943a 	slli	r2,r21,16
   1468c:	b009883a 	mov	r4,r22
   14690:	980b883a 	mov	r5,r19
   14694:	10c7883a 	add	r3,r2,r3
   14698:	a812d43a 	srli	r9,r21,16
   1469c:	180d883a 	mov	r6,r3
   146a0:	ac00022e 	bgeu	r21,r16,146ac <__muldi3+0xc8>
   146a4:	00800074 	movhi	r2,1
   146a8:	4091883a 	add	r8,r8,r2
   146ac:	4267883a 	add	r19,r8,r9
   146b0:	302d883a 	mov	r22,r6
   146b4:	00145ac0 	call	145ac <__mulsi3>
   146b8:	d9400317 	ldw	r5,12(sp)
   146bc:	d9000017 	ldw	r4,0(sp)
   146c0:	1023883a 	mov	r17,r2
   146c4:	00145ac0 	call	145ac <__mulsi3>
   146c8:	14cb883a 	add	r5,r2,r19
   146cc:	894b883a 	add	r5,r17,r5
   146d0:	b005883a 	mov	r2,r22
   146d4:	2807883a 	mov	r3,r5
   146d8:	dfc00d17 	ldw	ra,52(sp)
   146dc:	df000c17 	ldw	fp,48(sp)
   146e0:	ddc00b17 	ldw	r23,44(sp)
   146e4:	dd800a17 	ldw	r22,40(sp)
   146e8:	dd400917 	ldw	r21,36(sp)
   146ec:	dd000817 	ldw	r20,32(sp)
   146f0:	dcc00717 	ldw	r19,28(sp)
   146f4:	dc800617 	ldw	r18,24(sp)
   146f8:	dc400517 	ldw	r17,20(sp)
   146fc:	dc000417 	ldw	r16,16(sp)
   14700:	dec00e04 	addi	sp,sp,56
   14704:	f800283a 	ret

00014708 <__clzsi2>:
   14708:	00bfffd4 	movui	r2,65535
   1470c:	11000e36 	bltu	r2,r4,14748 <__clzsi2+0x40>
   14710:	00803fc4 	movi	r2,255
   14714:	01400204 	movi	r5,8
   14718:	0007883a 	mov	r3,zero
   1471c:	11001036 	bltu	r2,r4,14760 <__clzsi2+0x58>
   14720:	000b883a 	mov	r5,zero
   14724:	20c6d83a 	srl	r3,r4,r3
   14728:	00800074 	movhi	r2,1
   1472c:	109e8004 	addi	r2,r2,31232
   14730:	1887883a 	add	r3,r3,r2
   14734:	18800003 	ldbu	r2,0(r3)
   14738:	00c00804 	movi	r3,32
   1473c:	2885883a 	add	r2,r5,r2
   14740:	1885c83a 	sub	r2,r3,r2
   14744:	f800283a 	ret
   14748:	01400404 	movi	r5,16
   1474c:	00804034 	movhi	r2,256
   14750:	10bfffc4 	addi	r2,r2,-1
   14754:	2807883a 	mov	r3,r5
   14758:	113ff22e 	bgeu	r2,r4,14724 <__clzsi2+0x1c>
   1475c:	01400604 	movi	r5,24
   14760:	2807883a 	mov	r3,r5
   14764:	20c6d83a 	srl	r3,r4,r3
   14768:	00800074 	movhi	r2,1
   1476c:	109e8004 	addi	r2,r2,31232
   14770:	1887883a 	add	r3,r3,r2
   14774:	18800003 	ldbu	r2,0(r3)
   14778:	00c00804 	movi	r3,32
   1477c:	2885883a 	add	r2,r5,r2
   14780:	1885c83a 	sub	r2,r3,r2
   14784:	f800283a 	ret

00014788 <__pack_f>:
   14788:	20c00017 	ldw	r3,0(r4)
   1478c:	01c00044 	movi	r7,1
   14790:	21800317 	ldw	r6,12(r4)
   14794:	21400117 	ldw	r5,4(r4)
   14798:	38c02d2e 	bgeu	r7,r3,14850 <__pack_f+0xc8>
   1479c:	00800104 	movi	r2,4
   147a0:	18802826 	beq	r3,r2,14844 <__pack_f+0xbc>
   147a4:	00800084 	movi	r2,2
   147a8:	18800126 	beq	r3,r2,147b0 <__pack_f+0x28>
   147ac:	3000101e 	bne	r6,zero,147f0 <__pack_f+0x68>
   147b0:	000d883a 	mov	r6,zero
   147b4:	0007883a 	mov	r3,zero
   147b8:	19003fcc 	andi	r4,r3,255
   147bc:	200895fa 	slli	r4,r4,23
   147c0:	00c02034 	movhi	r3,128
   147c4:	18ffffc4 	addi	r3,r3,-1
   147c8:	30c6703a 	and	r3,r6,r3
   147cc:	10a0002c 	andhi	r2,r2,32768
   147d0:	10c4b03a 	or	r2,r2,r3
   147d4:	280a97fa 	slli	r5,r5,31
   147d8:	1104b03a 	or	r2,r2,r4
   147dc:	00e00034 	movhi	r3,32768
   147e0:	18ffffc4 	addi	r3,r3,-1
   147e4:	10c4703a 	and	r2,r2,r3
   147e8:	1144b03a 	or	r2,r2,r5
   147ec:	f800283a 	ret
   147f0:	21000217 	ldw	r4,8(r4)
   147f4:	00bfe084 	movi	r2,-126
   147f8:	20801b16 	blt	r4,r2,14868 <__pack_f+0xe0>
   147fc:	00801fc4 	movi	r2,127
   14800:	11001016 	blt	r2,r4,14844 <__pack_f+0xbc>
   14804:	308e703a 	and	r7,r6,r2
   14808:	2087883a 	add	r3,r4,r2
   1480c:	00801004 	movi	r2,64
   14810:	38800526 	beq	r7,r2,14828 <__pack_f+0xa0>
   14814:	31800fc4 	addi	r6,r6,63
   14818:	30000716 	blt	r6,zero,14838 <__pack_f+0xb0>
   1481c:	300490ba 	slli	r2,r6,2
   14820:	100cd27a 	srli	r6,r2,9
   14824:	003fe406 	br	147b8 <__pack_f+0x30>
   14828:	3080200c 	andi	r2,r6,128
   1482c:	103ffa26 	beq	r2,zero,14818 <__pack_f+0x90>
   14830:	31cd883a 	add	r6,r6,r7
   14834:	003ff806 	br	14818 <__pack_f+0x90>
   14838:	300cd07a 	srli	r6,r6,1
   1483c:	18c00044 	addi	r3,r3,1
   14840:	003ff606 	br	1481c <__pack_f+0x94>
   14844:	000d883a 	mov	r6,zero
   14848:	00ffffc4 	movi	r3,-1
   1484c:	003fda06 	br	147b8 <__pack_f+0x30>
   14850:	31800434 	orhi	r6,r6,16
   14854:	00802034 	movhi	r2,128
   14858:	10bfffc4 	addi	r2,r2,-1
   1485c:	308c703a 	and	r6,r6,r2
   14860:	00ffffc4 	movi	r3,-1
   14864:	003fd406 	br	147b8 <__pack_f+0x30>
   14868:	1109c83a 	sub	r4,r2,r4
   1486c:	00800644 	movi	r2,25
   14870:	11001216 	blt	r2,r4,148bc <__pack_f+0x134>
   14874:	3904983a 	sll	r2,r7,r4
   14878:	3106d83a 	srl	r3,r6,r4
   1487c:	10bfffc4 	addi	r2,r2,-1
   14880:	3084703a 	and	r2,r6,r2
   14884:	1004c03a 	cmpne	r2,r2,zero
   14888:	1886b03a 	or	r3,r3,r2
   1488c:	19001fcc 	andi	r4,r3,127
   14890:	00801004 	movi	r2,64
   14894:	20800c26 	beq	r4,r2,148c8 <__pack_f+0x140>
   14898:	18c00fc4 	addi	r3,r3,63
   1489c:	00900034 	movhi	r2,16384
   148a0:	10bfffc4 	addi	r2,r2,-1
   148a4:	180cd1fa 	srli	r6,r3,7
   148a8:	10c7803a 	cmpltu	r3,r2,r3
   148ac:	00802034 	movhi	r2,128
   148b0:	10bfffc4 	addi	r2,r2,-1
   148b4:	308c703a 	and	r6,r6,r2
   148b8:	003fbf06 	br	147b8 <__pack_f+0x30>
   148bc:	0007883a 	mov	r3,zero
   148c0:	000d883a 	mov	r6,zero
   148c4:	003ff906 	br	148ac <__pack_f+0x124>
   148c8:	1880200c 	andi	r2,r3,128
   148cc:	10000126 	beq	r2,zero,148d4 <__pack_f+0x14c>
   148d0:	1907883a 	add	r3,r3,r4
   148d4:	180cd1fa 	srli	r6,r3,7
   148d8:	00900034 	movhi	r2,16384
   148dc:	10bfffc4 	addi	r2,r2,-1
   148e0:	10c7803a 	cmpltu	r3,r2,r3
   148e4:	003ff106 	br	148ac <__pack_f+0x124>

000148e8 <__unpack_f>:
   148e8:	21800017 	ldw	r6,0(r4)
   148ec:	00c02034 	movhi	r3,128
   148f0:	18ffffc4 	addi	r3,r3,-1
   148f4:	3004d5fa 	srli	r2,r6,23
   148f8:	3008d7fa 	srli	r4,r6,31
   148fc:	30ce703a 	and	r7,r6,r3
   14900:	10c03fcc 	andi	r3,r2,255
   14904:	29000115 	stw	r4,4(r5)
   14908:	1800131e 	bne	r3,zero,14958 <__unpack_f+0x70>
   1490c:	38000f26 	beq	r7,zero,1494c <__unpack_f+0x64>
   14910:	380691fa 	slli	r3,r7,7
   14914:	01bfe084 	movi	r6,-126
   14918:	008000c4 	movi	r2,3
   1491c:	01100034 	movhi	r4,16384
   14920:	213fffc4 	addi	r4,r4,-1
   14924:	28800015 	stw	r2,0(r5)
   14928:	29800215 	stw	r6,8(r5)
   1492c:	20c00536 	bltu	r4,r3,14944 <__unpack_f+0x5c>
   14930:	3005883a 	mov	r2,r6
   14934:	18c7883a 	add	r3,r3,r3
   14938:	10bfffc4 	addi	r2,r2,-1
   1493c:	20fffd2e 	bgeu	r4,r3,14934 <__unpack_f+0x4c>
   14940:	28800215 	stw	r2,8(r5)
   14944:	28c00315 	stw	r3,12(r5)
   14948:	f800283a 	ret
   1494c:	00800084 	movi	r2,2
   14950:	28800015 	stw	r2,0(r5)
   14954:	f800283a 	ret
   14958:	00803fc4 	movi	r2,255
   1495c:	18800826 	beq	r3,r2,14980 <__unpack_f+0x98>
   14960:	380491fa 	slli	r2,r7,7
   14964:	18ffe044 	addi	r3,r3,-127
   14968:	28c00215 	stw	r3,8(r5)
   1496c:	10900034 	orhi	r2,r2,16384
   14970:	28800315 	stw	r2,12(r5)
   14974:	008000c4 	movi	r2,3
   14978:	28800015 	stw	r2,0(r5)
   1497c:	f800283a 	ret
   14980:	3800031e 	bne	r7,zero,14990 <__unpack_f+0xa8>
   14984:	00800104 	movi	r2,4
   14988:	28800015 	stw	r2,0(r5)
   1498c:	f800283a 	ret
   14990:	3080042c 	andhi	r2,r6,16
   14994:	10000426 	beq	r2,zero,149a8 <__unpack_f+0xc0>
   14998:	00800044 	movi	r2,1
   1499c:	28800015 	stw	r2,0(r5)
   149a0:	29c00315 	stw	r7,12(r5)
   149a4:	f800283a 	ret
   149a8:	28000015 	stw	zero,0(r5)
   149ac:	003ffc06 	br	149a0 <__unpack_f+0xb8>

000149b0 <__fpcmp_parts_f>:
   149b0:	21800017 	ldw	r6,0(r4)
   149b4:	00c00044 	movi	r3,1
   149b8:	19800a2e 	bgeu	r3,r6,149e4 <__fpcmp_parts_f+0x34>
   149bc:	28800017 	ldw	r2,0(r5)
   149c0:	1880082e 	bgeu	r3,r2,149e4 <__fpcmp_parts_f+0x34>
   149c4:	00c00104 	movi	r3,4
   149c8:	30c01e26 	beq	r6,r3,14a44 <__fpcmp_parts_f+0x94>
   149cc:	10c01a26 	beq	r2,r3,14a38 <__fpcmp_parts_f+0x88>
   149d0:	00c00084 	movi	r3,2
   149d4:	30c00526 	beq	r6,r3,149ec <__fpcmp_parts_f+0x3c>
   149d8:	10c0071e 	bne	r2,r3,149f8 <__fpcmp_parts_f+0x48>
   149dc:	20800117 	ldw	r2,4(r4)
   149e0:	1000091e 	bne	r2,zero,14a08 <__fpcmp_parts_f+0x58>
   149e4:	00800044 	movi	r2,1
   149e8:	f800283a 	ret
   149ec:	10c0121e 	bne	r2,r3,14a38 <__fpcmp_parts_f+0x88>
   149f0:	0005883a 	mov	r2,zero
   149f4:	f800283a 	ret
   149f8:	20c00117 	ldw	r3,4(r4)
   149fc:	28800117 	ldw	r2,4(r5)
   14a00:	18800326 	beq	r3,r2,14a10 <__fpcmp_parts_f+0x60>
   14a04:	183ff726 	beq	r3,zero,149e4 <__fpcmp_parts_f+0x34>
   14a08:	00bfffc4 	movi	r2,-1
   14a0c:	f800283a 	ret
   14a10:	21800217 	ldw	r6,8(r4)
   14a14:	28800217 	ldw	r2,8(r5)
   14a18:	11bffa16 	blt	r2,r6,14a04 <__fpcmp_parts_f+0x54>
   14a1c:	30800416 	blt	r6,r2,14a30 <__fpcmp_parts_f+0x80>
   14a20:	21000317 	ldw	r4,12(r4)
   14a24:	29400317 	ldw	r5,12(r5)
   14a28:	293ff636 	bltu	r5,r4,14a04 <__fpcmp_parts_f+0x54>
   14a2c:	217ff02e 	bgeu	r4,r5,149f0 <__fpcmp_parts_f+0x40>
   14a30:	183fec1e 	bne	r3,zero,149e4 <__fpcmp_parts_f+0x34>
   14a34:	003ff406 	br	14a08 <__fpcmp_parts_f+0x58>
   14a38:	28800117 	ldw	r2,4(r5)
   14a3c:	103fe91e 	bne	r2,zero,149e4 <__fpcmp_parts_f+0x34>
   14a40:	003ff106 	br	14a08 <__fpcmp_parts_f+0x58>
   14a44:	11bfe51e 	bne	r2,r6,149dc <__fpcmp_parts_f+0x2c>
   14a48:	28c00117 	ldw	r3,4(r5)
   14a4c:	20800117 	ldw	r2,4(r4)
   14a50:	1885c83a 	sub	r2,r3,r2
   14a54:	f800283a 	ret

00014a58 <__pack_d>:
   14a58:	20c00017 	ldw	r3,0(r4)
   14a5c:	defffd04 	addi	sp,sp,-12
   14a60:	dc000015 	stw	r16,0(sp)
   14a64:	dc800215 	stw	r18,8(sp)
   14a68:	dc400115 	stw	r17,4(sp)
   14a6c:	00800044 	movi	r2,1
   14a70:	22000317 	ldw	r8,12(r4)
   14a74:	001f883a 	mov	r15,zero
   14a78:	22400417 	ldw	r9,16(r4)
   14a7c:	24000117 	ldw	r16,4(r4)
   14a80:	10c0552e 	bgeu	r2,r3,14bd8 <__pack_d+0x180>
   14a84:	00800104 	movi	r2,4
   14a88:	18804f26 	beq	r3,r2,14bc8 <__pack_d+0x170>
   14a8c:	00800084 	movi	r2,2
   14a90:	18800226 	beq	r3,r2,14a9c <__pack_d+0x44>
   14a94:	4244b03a 	or	r2,r8,r9
   14a98:	10001a1e 	bne	r2,zero,14b04 <__pack_d+0xac>
   14a9c:	000d883a 	mov	r6,zero
   14aa0:	000f883a 	mov	r7,zero
   14aa4:	0011883a 	mov	r8,zero
   14aa8:	00800434 	movhi	r2,16
   14aac:	10bfffc4 	addi	r2,r2,-1
   14ab0:	301d883a 	mov	r14,r6
   14ab4:	3884703a 	and	r2,r7,r2
   14ab8:	400a953a 	slli	r5,r8,20
   14abc:	79bffc2c 	andhi	r6,r15,65520
   14ac0:	308cb03a 	or	r6,r6,r2
   14ac4:	00e00434 	movhi	r3,32784
   14ac8:	18ffffc4 	addi	r3,r3,-1
   14acc:	800497fa 	slli	r2,r16,31
   14ad0:	30c6703a 	and	r3,r6,r3
   14ad4:	1946b03a 	or	r3,r3,r5
   14ad8:	01600034 	movhi	r5,32768
   14adc:	297fffc4 	addi	r5,r5,-1
   14ae0:	194a703a 	and	r5,r3,r5
   14ae4:	288ab03a 	or	r5,r5,r2
   14ae8:	2807883a 	mov	r3,r5
   14aec:	7005883a 	mov	r2,r14
   14af0:	dc800217 	ldw	r18,8(sp)
   14af4:	dc400117 	ldw	r17,4(sp)
   14af8:	dc000017 	ldw	r16,0(sp)
   14afc:	dec00304 	addi	sp,sp,12
   14b00:	f800283a 	ret
   14b04:	21000217 	ldw	r4,8(r4)
   14b08:	00bf0084 	movi	r2,-1022
   14b0c:	20803f16 	blt	r4,r2,14c0c <__pack_d+0x1b4>
   14b10:	0080ffc4 	movi	r2,1023
   14b14:	11002c16 	blt	r2,r4,14bc8 <__pack_d+0x170>
   14b18:	00803fc4 	movi	r2,255
   14b1c:	408c703a 	and	r6,r8,r2
   14b20:	00802004 	movi	r2,128
   14b24:	0007883a 	mov	r3,zero
   14b28:	000f883a 	mov	r7,zero
   14b2c:	2280ffc4 	addi	r10,r4,1023
   14b30:	30801e26 	beq	r6,r2,14bac <__pack_d+0x154>
   14b34:	00801fc4 	movi	r2,127
   14b38:	4089883a 	add	r4,r8,r2
   14b3c:	220d803a 	cmpltu	r6,r4,r8
   14b40:	324d883a 	add	r6,r6,r9
   14b44:	2011883a 	mov	r8,r4
   14b48:	3013883a 	mov	r9,r6
   14b4c:	00880034 	movhi	r2,8192
   14b50:	10bfffc4 	addi	r2,r2,-1
   14b54:	12400d36 	bltu	r2,r9,14b8c <__pack_d+0x134>
   14b58:	4804963a 	slli	r2,r9,24
   14b5c:	400cd23a 	srli	r6,r8,8
   14b60:	480ed23a 	srli	r7,r9,8
   14b64:	013fffc4 	movi	r4,-1
   14b68:	118cb03a 	or	r6,r2,r6
   14b6c:	01400434 	movhi	r5,16
   14b70:	297fffc4 	addi	r5,r5,-1
   14b74:	3104703a 	and	r2,r6,r4
   14b78:	3946703a 	and	r3,r7,r5
   14b7c:	5201ffcc 	andi	r8,r10,2047
   14b80:	100d883a 	mov	r6,r2
   14b84:	180f883a 	mov	r7,r3
   14b88:	003fc706 	br	14aa8 <__pack_d+0x50>
   14b8c:	480897fa 	slli	r4,r9,31
   14b90:	4004d07a 	srli	r2,r8,1
   14b94:	4806d07a 	srli	r3,r9,1
   14b98:	52800044 	addi	r10,r10,1
   14b9c:	2084b03a 	or	r2,r4,r2
   14ba0:	1011883a 	mov	r8,r2
   14ba4:	1813883a 	mov	r9,r3
   14ba8:	003feb06 	br	14b58 <__pack_d+0x100>
   14bac:	383fe11e 	bne	r7,zero,14b34 <__pack_d+0xdc>
   14bb0:	01004004 	movi	r4,256
   14bb4:	4104703a 	and	r2,r8,r4
   14bb8:	10c4b03a 	or	r2,r2,r3
   14bbc:	103fe326 	beq	r2,zero,14b4c <__pack_d+0xf4>
   14bc0:	3005883a 	mov	r2,r6
   14bc4:	003fdc06 	br	14b38 <__pack_d+0xe0>
   14bc8:	000d883a 	mov	r6,zero
   14bcc:	000f883a 	mov	r7,zero
   14bd0:	0201ffc4 	movi	r8,2047
   14bd4:	003fb406 	br	14aa8 <__pack_d+0x50>
   14bd8:	0005883a 	mov	r2,zero
   14bdc:	00c00234 	movhi	r3,8
   14be0:	408cb03a 	or	r6,r8,r2
   14be4:	48ceb03a 	or	r7,r9,r3
   14be8:	013fffc4 	movi	r4,-1
   14bec:	01400434 	movhi	r5,16
   14bf0:	297fffc4 	addi	r5,r5,-1
   14bf4:	3104703a 	and	r2,r6,r4
   14bf8:	3946703a 	and	r3,r7,r5
   14bfc:	100d883a 	mov	r6,r2
   14c00:	180f883a 	mov	r7,r3
   14c04:	0201ffc4 	movi	r8,2047
   14c08:	003fa706 	br	14aa8 <__pack_d+0x50>
   14c0c:	1109c83a 	sub	r4,r2,r4
   14c10:	00800e04 	movi	r2,56
   14c14:	11004316 	blt	r2,r4,14d24 <__pack_d+0x2cc>
   14c18:	21fff804 	addi	r7,r4,-32
   14c1c:	38004516 	blt	r7,zero,14d34 <__pack_d+0x2dc>
   14c20:	49d8d83a 	srl	r12,r9,r7
   14c24:	001b883a 	mov	r13,zero
   14c28:	0023883a 	mov	r17,zero
   14c2c:	01400044 	movi	r5,1
   14c30:	0025883a 	mov	r18,zero
   14c34:	38004716 	blt	r7,zero,14d54 <__pack_d+0x2fc>
   14c38:	29d6983a 	sll	r11,r5,r7
   14c3c:	0015883a 	mov	r10,zero
   14c40:	00bfffc4 	movi	r2,-1
   14c44:	5089883a 	add	r4,r10,r2
   14c48:	588b883a 	add	r5,r11,r2
   14c4c:	228d803a 	cmpltu	r6,r4,r10
   14c50:	314b883a 	add	r5,r6,r5
   14c54:	4104703a 	and	r2,r8,r4
   14c58:	4946703a 	and	r3,r9,r5
   14c5c:	10c4b03a 	or	r2,r2,r3
   14c60:	10000226 	beq	r2,zero,14c6c <__pack_d+0x214>
   14c64:	04400044 	movi	r17,1
   14c68:	0025883a 	mov	r18,zero
   14c6c:	00803fc4 	movi	r2,255
   14c70:	644eb03a 	or	r7,r12,r17
   14c74:	3892703a 	and	r9,r7,r2
   14c78:	00802004 	movi	r2,128
   14c7c:	6c90b03a 	or	r8,r13,r18
   14c80:	0015883a 	mov	r10,zero
   14c84:	48801626 	beq	r9,r2,14ce0 <__pack_d+0x288>
   14c88:	01001fc4 	movi	r4,127
   14c8c:	3905883a 	add	r2,r7,r4
   14c90:	11cd803a 	cmpltu	r6,r2,r7
   14c94:	320d883a 	add	r6,r6,r8
   14c98:	100f883a 	mov	r7,r2
   14c9c:	00840034 	movhi	r2,4096
   14ca0:	10bfffc4 	addi	r2,r2,-1
   14ca4:	3011883a 	mov	r8,r6
   14ca8:	0007883a 	mov	r3,zero
   14cac:	11801b36 	bltu	r2,r6,14d1c <__pack_d+0x2c4>
   14cb0:	4004963a 	slli	r2,r8,24
   14cb4:	3808d23a 	srli	r4,r7,8
   14cb8:	400ad23a 	srli	r5,r8,8
   14cbc:	1813883a 	mov	r9,r3
   14cc0:	1108b03a 	or	r4,r2,r4
   14cc4:	00bfffc4 	movi	r2,-1
   14cc8:	00c00434 	movhi	r3,16
   14ccc:	18ffffc4 	addi	r3,r3,-1
   14cd0:	208c703a 	and	r6,r4,r2
   14cd4:	28ce703a 	and	r7,r5,r3
   14cd8:	4a01ffcc 	andi	r8,r9,2047
   14cdc:	003f7206 	br	14aa8 <__pack_d+0x50>
   14ce0:	503fe91e 	bne	r10,zero,14c88 <__pack_d+0x230>
   14ce4:	01004004 	movi	r4,256
   14ce8:	3904703a 	and	r2,r7,r4
   14cec:	0007883a 	mov	r3,zero
   14cf0:	10c4b03a 	or	r2,r2,r3
   14cf4:	10000626 	beq	r2,zero,14d10 <__pack_d+0x2b8>
   14cf8:	3a45883a 	add	r2,r7,r9
   14cfc:	11cd803a 	cmpltu	r6,r2,r7
   14d00:	320d883a 	add	r6,r6,r8
   14d04:	100f883a 	mov	r7,r2
   14d08:	3011883a 	mov	r8,r6
   14d0c:	0007883a 	mov	r3,zero
   14d10:	00840034 	movhi	r2,4096
   14d14:	10bfffc4 	addi	r2,r2,-1
   14d18:	123fe52e 	bgeu	r2,r8,14cb0 <__pack_d+0x258>
   14d1c:	00c00044 	movi	r3,1
   14d20:	003fe306 	br	14cb0 <__pack_d+0x258>
   14d24:	0009883a 	mov	r4,zero
   14d28:	0013883a 	mov	r9,zero
   14d2c:	000b883a 	mov	r5,zero
   14d30:	003fe406 	br	14cc4 <__pack_d+0x26c>
   14d34:	4a47883a 	add	r3,r9,r9
   14d38:	008007c4 	movi	r2,31
   14d3c:	1105c83a 	sub	r2,r2,r4
   14d40:	1886983a 	sll	r3,r3,r2
   14d44:	4118d83a 	srl	r12,r8,r4
   14d48:	491ad83a 	srl	r13,r9,r4
   14d4c:	1b18b03a 	or	r12,r3,r12
   14d50:	003fb506 	br	14c28 <__pack_d+0x1d0>
   14d54:	2806d07a 	srli	r3,r5,1
   14d58:	008007c4 	movi	r2,31
   14d5c:	1105c83a 	sub	r2,r2,r4
   14d60:	1896d83a 	srl	r11,r3,r2
   14d64:	2914983a 	sll	r10,r5,r4
   14d68:	003fb506 	br	14c40 <__pack_d+0x1e8>

00014d6c <__unpack_d>:
   14d6c:	20c00117 	ldw	r3,4(r4)
   14d70:	22400017 	ldw	r9,0(r4)
   14d74:	00800434 	movhi	r2,16
   14d78:	10bfffc4 	addi	r2,r2,-1
   14d7c:	1808d53a 	srli	r4,r3,20
   14d80:	180cd7fa 	srli	r6,r3,31
   14d84:	1894703a 	and	r10,r3,r2
   14d88:	2201ffcc 	andi	r8,r4,2047
   14d8c:	281b883a 	mov	r13,r5
   14d90:	4817883a 	mov	r11,r9
   14d94:	29800115 	stw	r6,4(r5)
   14d98:	5019883a 	mov	r12,r10
   14d9c:	40001e1e 	bne	r8,zero,14e18 <__unpack_d+0xac>
   14da0:	4a84b03a 	or	r2,r9,r10
   14da4:	10001926 	beq	r2,zero,14e0c <__unpack_d+0xa0>
   14da8:	4804d63a 	srli	r2,r9,24
   14dac:	500c923a 	slli	r6,r10,8
   14db0:	013f0084 	movi	r4,-1022
   14db4:	00c40034 	movhi	r3,4096
   14db8:	18ffffc4 	addi	r3,r3,-1
   14dbc:	118cb03a 	or	r6,r2,r6
   14dc0:	008000c4 	movi	r2,3
   14dc4:	480a923a 	slli	r5,r9,8
   14dc8:	68800015 	stw	r2,0(r13)
   14dcc:	69000215 	stw	r4,8(r13)
   14dd0:	19800b36 	bltu	r3,r6,14e00 <__unpack_d+0x94>
   14dd4:	200f883a 	mov	r7,r4
   14dd8:	1811883a 	mov	r8,r3
   14ddc:	2945883a 	add	r2,r5,r5
   14de0:	1149803a 	cmpltu	r4,r2,r5
   14de4:	3187883a 	add	r3,r6,r6
   14de8:	20c9883a 	add	r4,r4,r3
   14dec:	100b883a 	mov	r5,r2
   14df0:	200d883a 	mov	r6,r4
   14df4:	39ffffc4 	addi	r7,r7,-1
   14df8:	413ff82e 	bgeu	r8,r4,14ddc <__unpack_d+0x70>
   14dfc:	69c00215 	stw	r7,8(r13)
   14e00:	69800415 	stw	r6,16(r13)
   14e04:	69400315 	stw	r5,12(r13)
   14e08:	f800283a 	ret
   14e0c:	00800084 	movi	r2,2
   14e10:	28800015 	stw	r2,0(r5)
   14e14:	f800283a 	ret
   14e18:	0081ffc4 	movi	r2,2047
   14e1c:	40800f26 	beq	r8,r2,14e5c <__unpack_d+0xf0>
   14e20:	480cd63a 	srli	r6,r9,24
   14e24:	5006923a 	slli	r3,r10,8
   14e28:	4804923a 	slli	r2,r9,8
   14e2c:	0009883a 	mov	r4,zero
   14e30:	30c6b03a 	or	r3,r6,r3
   14e34:	01440034 	movhi	r5,4096
   14e38:	110cb03a 	or	r6,r2,r4
   14e3c:	423f0044 	addi	r8,r8,-1023
   14e40:	194eb03a 	or	r7,r3,r5
   14e44:	008000c4 	movi	r2,3
   14e48:	69c00415 	stw	r7,16(r13)
   14e4c:	6a000215 	stw	r8,8(r13)
   14e50:	68800015 	stw	r2,0(r13)
   14e54:	69800315 	stw	r6,12(r13)
   14e58:	f800283a 	ret
   14e5c:	4a84b03a 	or	r2,r9,r10
   14e60:	1000031e 	bne	r2,zero,14e70 <__unpack_d+0x104>
   14e64:	00800104 	movi	r2,4
   14e68:	28800015 	stw	r2,0(r5)
   14e6c:	f800283a 	ret
   14e70:	0009883a 	mov	r4,zero
   14e74:	01400234 	movhi	r5,8
   14e78:	4904703a 	and	r2,r9,r4
   14e7c:	5146703a 	and	r3,r10,r5
   14e80:	10c4b03a 	or	r2,r2,r3
   14e84:	10000526 	beq	r2,zero,14e9c <__unpack_d+0x130>
   14e88:	00800044 	movi	r2,1
   14e8c:	68800015 	stw	r2,0(r13)
   14e90:	6b000415 	stw	r12,16(r13)
   14e94:	6ac00315 	stw	r11,12(r13)
   14e98:	f800283a 	ret
   14e9c:	68000015 	stw	zero,0(r13)
   14ea0:	003ffb06 	br	14e90 <__unpack_d+0x124>

00014ea4 <printf>:
   14ea4:	defffb04 	addi	sp,sp,-20
   14ea8:	dfc00115 	stw	ra,4(sp)
   14eac:	d9400215 	stw	r5,8(sp)
   14eb0:	d9800315 	stw	r6,12(sp)
   14eb4:	d9c00415 	stw	r7,16(sp)
   14eb8:	008000b4 	movhi	r2,2
   14ebc:	10a13204 	addi	r2,r2,-31544
   14ec0:	11400017 	ldw	r5,0(r2)
   14ec4:	d8800204 	addi	r2,sp,8
   14ec8:	d8800015 	stw	r2,0(sp)
   14ecc:	29c00217 	ldw	r7,8(r5)
   14ed0:	100d883a 	mov	r6,r2
   14ed4:	00800074 	movhi	r2,1
   14ed8:	1095e204 	addi	r2,r2,22408
   14edc:	200b883a 	mov	r5,r4
   14ee0:	38800115 	stw	r2,4(r7)
   14ee4:	3809883a 	mov	r4,r7
   14ee8:	00157640 	call	15764 <__vfprintf_internal>
   14eec:	dfc00117 	ldw	ra,4(sp)
   14ef0:	dec00504 	addi	sp,sp,20
   14ef4:	f800283a 	ret

00014ef8 <_printf_r>:
   14ef8:	defffc04 	addi	sp,sp,-16
   14efc:	dfc00115 	stw	ra,4(sp)
   14f00:	d9800215 	stw	r6,8(sp)
   14f04:	d9c00315 	stw	r7,12(sp)
   14f08:	22000217 	ldw	r8,8(r4)
   14f0c:	d8800204 	addi	r2,sp,8
   14f10:	d8800015 	stw	r2,0(sp)
   14f14:	100f883a 	mov	r7,r2
   14f18:	00800074 	movhi	r2,1
   14f1c:	1095e204 	addi	r2,r2,22408
   14f20:	280d883a 	mov	r6,r5
   14f24:	40800115 	stw	r2,4(r8)
   14f28:	400b883a 	mov	r5,r8
   14f2c:	00151640 	call	15164 <___vfprintf_internal_r>
   14f30:	dfc00117 	ldw	ra,4(sp)
   14f34:	dec00404 	addi	sp,sp,16
   14f38:	f800283a 	ret

00014f3c <putc>:
   14f3c:	defffd04 	addi	sp,sp,-12
   14f40:	008000b4 	movhi	r2,2
   14f44:	10a13204 	addi	r2,r2,-31544
   14f48:	dc000115 	stw	r16,4(sp)
   14f4c:	2021883a 	mov	r16,r4
   14f50:	11000017 	ldw	r4,0(r2)
   14f54:	dc000005 	stb	r16,0(sp)
   14f58:	00800074 	movhi	r2,1
   14f5c:	1095e204 	addi	r2,r2,22408
   14f60:	dfc00215 	stw	ra,8(sp)
   14f64:	28800115 	stw	r2,4(r5)
   14f68:	d80d883a 	mov	r6,sp
   14f6c:	01c00044 	movi	r7,1
   14f70:	103ee83a 	callr	r2
   14f74:	1007883a 	mov	r3,r2
   14f78:	00bfffc4 	movi	r2,-1
   14f7c:	18800526 	beq	r3,r2,14f94 <putc+0x58>
   14f80:	8005883a 	mov	r2,r16
   14f84:	dfc00217 	ldw	ra,8(sp)
   14f88:	dc000117 	ldw	r16,4(sp)
   14f8c:	dec00304 	addi	sp,sp,12
   14f90:	f800283a 	ret
   14f94:	1821883a 	mov	r16,r3
   14f98:	8005883a 	mov	r2,r16
   14f9c:	dfc00217 	ldw	ra,8(sp)
   14fa0:	dc000117 	ldw	r16,4(sp)
   14fa4:	dec00304 	addi	sp,sp,12
   14fa8:	f800283a 	ret

00014fac <_putc_r>:
   14fac:	008000b4 	movhi	r2,2
   14fb0:	10a13204 	addi	r2,r2,-31544
   14fb4:	defffd04 	addi	sp,sp,-12
   14fb8:	11000017 	ldw	r4,0(r2)
   14fbc:	00800074 	movhi	r2,1
   14fc0:	1095e204 	addi	r2,r2,22408
   14fc4:	30800115 	stw	r2,4(r6)
   14fc8:	dc000115 	stw	r16,4(sp)
   14fcc:	2821883a 	mov	r16,r5
   14fd0:	dfc00215 	stw	ra,8(sp)
   14fd4:	300b883a 	mov	r5,r6
   14fd8:	01c00044 	movi	r7,1
   14fdc:	d80d883a 	mov	r6,sp
   14fe0:	dc000005 	stb	r16,0(sp)
   14fe4:	103ee83a 	callr	r2
   14fe8:	1007883a 	mov	r3,r2
   14fec:	00bfffc4 	movi	r2,-1
   14ff0:	18800526 	beq	r3,r2,15008 <_putc_r+0x5c>
   14ff4:	8005883a 	mov	r2,r16
   14ff8:	dfc00217 	ldw	ra,8(sp)
   14ffc:	dc000117 	ldw	r16,4(sp)
   15000:	dec00304 	addi	sp,sp,12
   15004:	f800283a 	ret
   15008:	1821883a 	mov	r16,r3
   1500c:	8005883a 	mov	r2,r16
   15010:	dfc00217 	ldw	ra,8(sp)
   15014:	dc000117 	ldw	r16,4(sp)
   15018:	dec00304 	addi	sp,sp,12
   1501c:	f800283a 	ret

00015020 <_puts_r>:
   15020:	defffd04 	addi	sp,sp,-12
   15024:	dc000015 	stw	r16,0(sp)
   15028:	2021883a 	mov	r16,r4
   1502c:	2809883a 	mov	r4,r5
   15030:	dfc00215 	stw	ra,8(sp)
   15034:	dc400115 	stw	r17,4(sp)
   15038:	2823883a 	mov	r17,r5
   1503c:	00150c40 	call	150c4 <strlen>
   15040:	80c00217 	ldw	r3,8(r16)
   15044:	02000074 	movhi	r8,1
   15048:	4215e204 	addi	r8,r8,22408
   1504c:	880d883a 	mov	r6,r17
   15050:	100f883a 	mov	r7,r2
   15054:	8009883a 	mov	r4,r16
   15058:	180b883a 	mov	r5,r3
   1505c:	1a000115 	stw	r8,4(r3)
   15060:	403ee83a 	callr	r8
   15064:	047fffc4 	movi	r17,-1
   15068:	8009883a 	mov	r4,r16
   1506c:	01800074 	movhi	r6,1
   15070:	319f6104 	addi	r6,r6,32132
   15074:	01c00044 	movi	r7,1
   15078:	1440071e 	bne	r2,r17,15098 <_puts_r+0x78>
   1507c:	00ffffc4 	movi	r3,-1
   15080:	1805883a 	mov	r2,r3
   15084:	dfc00217 	ldw	ra,8(sp)
   15088:	dc400117 	ldw	r17,4(sp)
   1508c:	dc000017 	ldw	r16,0(sp)
   15090:	dec00304 	addi	sp,sp,12
   15094:	f800283a 	ret
   15098:	81400217 	ldw	r5,8(r16)
   1509c:	28c00117 	ldw	r3,4(r5)
   150a0:	183ee83a 	callr	r3
   150a4:	0007883a 	mov	r3,zero
   150a8:	147ff51e 	bne	r2,r17,15080 <_puts_r+0x60>
   150ac:	003ff306 	br	1507c <_puts_r+0x5c>

000150b0 <puts>:
   150b0:	008000b4 	movhi	r2,2
   150b4:	10a13204 	addi	r2,r2,-31544
   150b8:	200b883a 	mov	r5,r4
   150bc:	11000017 	ldw	r4,0(r2)
   150c0:	00150201 	jmpi	15020 <_puts_r>

000150c4 <strlen>:
   150c4:	20800007 	ldb	r2,0(r4)
   150c8:	10000526 	beq	r2,zero,150e0 <strlen+0x1c>
   150cc:	2007883a 	mov	r3,r4
   150d0:	18c00044 	addi	r3,r3,1
   150d4:	18800007 	ldb	r2,0(r3)
   150d8:	103ffd1e 	bne	r2,zero,150d0 <strlen+0xc>
   150dc:	1905c83a 	sub	r2,r3,r4
   150e0:	f800283a 	ret

000150e4 <print_repeat>:
   150e4:	defffb04 	addi	sp,sp,-20
   150e8:	dc800315 	stw	r18,12(sp)
   150ec:	dc400215 	stw	r17,8(sp)
   150f0:	dc000115 	stw	r16,4(sp)
   150f4:	dfc00415 	stw	ra,16(sp)
   150f8:	2025883a 	mov	r18,r4
   150fc:	2823883a 	mov	r17,r5
   15100:	3821883a 	mov	r16,r7
   15104:	d9800005 	stb	r6,0(sp)
   15108:	9009883a 	mov	r4,r18
   1510c:	880b883a 	mov	r5,r17
   15110:	d80d883a 	mov	r6,sp
   15114:	01c00044 	movi	r7,1
   15118:	04000b0e 	bge	zero,r16,15148 <print_repeat+0x64>
   1511c:	88c00117 	ldw	r3,4(r17)
   15120:	843fffc4 	addi	r16,r16,-1
   15124:	183ee83a 	callr	r3
   15128:	103ff726 	beq	r2,zero,15108 <print_repeat+0x24>
   1512c:	00bfffc4 	movi	r2,-1
   15130:	dfc00417 	ldw	ra,16(sp)
   15134:	dc800317 	ldw	r18,12(sp)
   15138:	dc400217 	ldw	r17,8(sp)
   1513c:	dc000117 	ldw	r16,4(sp)
   15140:	dec00504 	addi	sp,sp,20
   15144:	f800283a 	ret
   15148:	0005883a 	mov	r2,zero
   1514c:	dfc00417 	ldw	ra,16(sp)
   15150:	dc800317 	ldw	r18,12(sp)
   15154:	dc400217 	ldw	r17,8(sp)
   15158:	dc000117 	ldw	r16,4(sp)
   1515c:	dec00504 	addi	sp,sp,20
   15160:	f800283a 	ret

00015164 <___vfprintf_internal_r>:
   15164:	deffec04 	addi	sp,sp,-80
   15168:	ddc01115 	stw	r23,68(sp)
   1516c:	dd801015 	stw	r22,64(sp)
   15170:	dd000e15 	stw	r20,56(sp)
   15174:	dcc00d15 	stw	r19,52(sp)
   15178:	dc400b15 	stw	r17,44(sp)
   1517c:	dfc01315 	stw	ra,76(sp)
   15180:	df001215 	stw	fp,72(sp)
   15184:	dd400f15 	stw	r21,60(sp)
   15188:	dc800c15 	stw	r18,48(sp)
   1518c:	dc000a15 	stw	r16,40(sp)
   15190:	d9000915 	stw	r4,36(sp)
   15194:	282d883a 	mov	r22,r5
   15198:	3829883a 	mov	r20,r7
   1519c:	3027883a 	mov	r19,r6
   151a0:	0023883a 	mov	r17,zero
   151a4:	d8000815 	stw	zero,32(sp)
   151a8:	d8000715 	stw	zero,28(sp)
   151ac:	002f883a 	mov	r23,zero
   151b0:	d8000615 	stw	zero,24(sp)
   151b4:	d8000515 	stw	zero,20(sp)
   151b8:	d8000415 	stw	zero,16(sp)
   151bc:	d8000315 	stw	zero,12(sp)
   151c0:	d8000215 	stw	zero,8(sp)
   151c4:	99400003 	ldbu	r5,0(r19)
   151c8:	01c00044 	movi	r7,1
   151cc:	9cc00044 	addi	r19,r19,1
   151d0:	29003fcc 	andi	r4,r5,255
   151d4:	2100201c 	xori	r4,r4,128
   151d8:	213fe004 	addi	r4,r4,-128
   151dc:	20001626 	beq	r4,zero,15238 <___vfprintf_internal_r+0xd4>
   151e0:	89c02226 	beq	r17,r7,1526c <___vfprintf_internal_r+0x108>
   151e4:	00800084 	movi	r2,2
   151e8:	88802526 	beq	r17,r2,15280 <___vfprintf_internal_r+0x11c>
   151ec:	883ff51e 	bne	r17,zero,151c4 <___vfprintf_internal_r+0x60>
   151f0:	00800944 	movi	r2,37
   151f4:	2081291e 	bne	r4,r2,1569c <___vfprintf_internal_r+0x538>
   151f8:	05ffffc4 	movi	r23,-1
   151fc:	00800284 	movi	r2,10
   15200:	d9c00415 	stw	r7,16(sp)
   15204:	d8000815 	stw	zero,32(sp)
   15208:	d8000715 	stw	zero,28(sp)
   1520c:	ddc00615 	stw	r23,24(sp)
   15210:	d8800515 	stw	r2,20(sp)
   15214:	d8000315 	stw	zero,12(sp)
   15218:	99400003 	ldbu	r5,0(r19)
   1521c:	3823883a 	mov	r17,r7
   15220:	9cc00044 	addi	r19,r19,1
   15224:	29003fcc 	andi	r4,r5,255
   15228:	2100201c 	xori	r4,r4,128
   1522c:	213fe004 	addi	r4,r4,-128
   15230:	01c00044 	movi	r7,1
   15234:	203fea1e 	bne	r4,zero,151e0 <___vfprintf_internal_r+0x7c>
   15238:	d8800217 	ldw	r2,8(sp)
   1523c:	dfc01317 	ldw	ra,76(sp)
   15240:	df001217 	ldw	fp,72(sp)
   15244:	ddc01117 	ldw	r23,68(sp)
   15248:	dd801017 	ldw	r22,64(sp)
   1524c:	dd400f17 	ldw	r21,60(sp)
   15250:	dd000e17 	ldw	r20,56(sp)
   15254:	dcc00d17 	ldw	r19,52(sp)
   15258:	dc800c17 	ldw	r18,48(sp)
   1525c:	dc400b17 	ldw	r17,44(sp)
   15260:	dc000a17 	ldw	r16,40(sp)
   15264:	dec01404 	addi	sp,sp,80
   15268:	f800283a 	ret
   1526c:	00800c04 	movi	r2,48
   15270:	20805f26 	beq	r4,r2,153f0 <___vfprintf_internal_r+0x28c>
   15274:	00800944 	movi	r2,37
   15278:	20811526 	beq	r4,r2,156d0 <___vfprintf_internal_r+0x56c>
   1527c:	04400084 	movi	r17,2
   15280:	00800b84 	movi	r2,46
   15284:	20805826 	beq	r4,r2,153e8 <___vfprintf_internal_r+0x284>
   15288:	29bff404 	addi	r6,r5,-48
   1528c:	30c03fcc 	andi	r3,r6,255
   15290:	00800244 	movi	r2,9
   15294:	3021883a 	mov	r16,r6
   15298:	10c00c36 	bltu	r2,r3,152cc <___vfprintf_internal_r+0x168>
   1529c:	d8c00617 	ldw	r3,24(sp)
   152a0:	3025883a 	mov	r18,r6
   152a4:	18005816 	blt	r3,zero,15408 <___vfprintf_internal_r+0x2a4>
   152a8:	d9000617 	ldw	r4,24(sp)
   152ac:	01400284 	movi	r5,10
   152b0:	00145ac0 	call	145ac <__mulsi3>
   152b4:	80c03fcc 	andi	r3,r16,255
   152b8:	18c0201c 	xori	r3,r3,128
   152bc:	18ffe004 	addi	r3,r3,-128
   152c0:	10c5883a 	add	r2,r2,r3
   152c4:	d8800615 	stw	r2,24(sp)
   152c8:	003fbe06 	br	151c4 <___vfprintf_internal_r+0x60>
   152cc:	00801b04 	movi	r2,108
   152d0:	20804a26 	beq	r4,r2,153fc <___vfprintf_internal_r+0x298>
   152d4:	28bfea04 	addi	r2,r5,-88
   152d8:	10803fcc 	andi	r2,r2,255
   152dc:	00c00804 	movi	r3,32
   152e0:	18803f36 	bltu	r3,r2,153e0 <___vfprintf_internal_r+0x27c>
   152e4:	1085883a 	add	r2,r2,r2
   152e8:	1085883a 	add	r2,r2,r2
   152ec:	00c00074 	movhi	r3,1
   152f0:	18d4c004 	addi	r3,r3,21248
   152f4:	10c5883a 	add	r2,r2,r3
   152f8:	11000017 	ldw	r4,0(r2)
   152fc:	2000683a 	jmp	r4
   15300:	00015430 	cmpltui	zero,zero,1360
   15304:	000153e0 	cmpeqi	zero,zero,1359
   15308:	000153e0 	cmpeqi	zero,zero,1359
   1530c:	000153e0 	cmpeqi	zero,zero,1359
   15310:	000153e0 	cmpeqi	zero,zero,1359
   15314:	000153e0 	cmpeqi	zero,zero,1359
   15318:	000153e0 	cmpeqi	zero,zero,1359
   1531c:	000153e0 	cmpeqi	zero,zero,1359
   15320:	000153e0 	cmpeqi	zero,zero,1359
   15324:	000153e0 	cmpeqi	zero,zero,1359
   15328:	000153e0 	cmpeqi	zero,zero,1359
   1532c:	0001559c 	xori	zero,zero,1366
   15330:	000155f0 	cmpltui	zero,zero,1367
   15334:	000153e0 	cmpeqi	zero,zero,1359
   15338:	000153e0 	cmpeqi	zero,zero,1359
   1533c:	000153e0 	cmpeqi	zero,zero,1359
   15340:	000153e0 	cmpeqi	zero,zero,1359
   15344:	000155f0 	cmpltui	zero,zero,1367
   15348:	000153e0 	cmpeqi	zero,zero,1359
   1534c:	000153e0 	cmpeqi	zero,zero,1359
   15350:	000153e0 	cmpeqi	zero,zero,1359
   15354:	000153e0 	cmpeqi	zero,zero,1359
   15358:	000153e0 	cmpeqi	zero,zero,1359
   1535c:	00015640 	call	1564 <__alt_mem_onchip_ram-0xea9c>
   15360:	000153e0 	cmpeqi	zero,zero,1359
   15364:	000153e0 	cmpeqi	zero,zero,1359
   15368:	000153e0 	cmpeqi	zero,zero,1359
   1536c:	00015384 	movi	zero,1358
   15370:	000153e0 	cmpeqi	zero,zero,1359
   15374:	00015654 	movui	zero,1369
   15378:	000153e0 	cmpeqi	zero,zero,1359
   1537c:	000153e0 	cmpeqi	zero,zero,1359
   15380:	00015660 	cmpeqi	zero,zero,1369
   15384:	a4400017 	ldw	r17,0(r20)
   15388:	8809883a 	mov	r4,r17
   1538c:	00150c40 	call	150c4 <strlen>
   15390:	d9000917 	ldw	r4,36(sp)
   15394:	b8a5c83a 	sub	r18,r23,r2
   15398:	b00b883a 	mov	r5,r22
   1539c:	01800804 	movi	r6,32
   153a0:	900f883a 	mov	r7,r18
   153a4:	1021883a 	mov	r16,r2
   153a8:	00150e40 	call	150e4 <print_repeat>
   153ac:	1000b81e 	bne	r2,zero,15690 <___vfprintf_internal_r+0x52c>
   153b0:	b0c00117 	ldw	r3,4(r22)
   153b4:	d9000917 	ldw	r4,36(sp)
   153b8:	880d883a 	mov	r6,r17
   153bc:	b00b883a 	mov	r5,r22
   153c0:	800f883a 	mov	r7,r16
   153c4:	183ee83a 	callr	r3
   153c8:	1000b11e 	bne	r2,zero,15690 <___vfprintf_internal_r+0x52c>
   153cc:	d8c00217 	ldw	r3,8(sp)
   153d0:	a5000104 	addi	r20,r20,4
   153d4:	1c05883a 	add	r2,r3,r16
   153d8:	90a5883a 	add	r18,r18,r2
   153dc:	dc800215 	stw	r18,8(sp)
   153e0:	0023883a 	mov	r17,zero
   153e4:	003f7706 	br	151c4 <___vfprintf_internal_r+0x60>
   153e8:	d8000615 	stw	zero,24(sp)
   153ec:	003f7506 	br	151c4 <___vfprintf_internal_r+0x60>
   153f0:	04400084 	movi	r17,2
   153f4:	d9c00815 	stw	r7,32(sp)
   153f8:	003f7206 	br	151c4 <___vfprintf_internal_r+0x60>
   153fc:	00800044 	movi	r2,1
   15400:	d8800715 	stw	r2,28(sp)
   15404:	003f6f06 	br	151c4 <___vfprintf_internal_r+0x60>
   15408:	b800af16 	blt	r23,zero,156c8 <___vfprintf_internal_r+0x564>
   1540c:	b809883a 	mov	r4,r23
   15410:	01400284 	movi	r5,10
   15414:	00145ac0 	call	145ac <__mulsi3>
   15418:	1007883a 	mov	r3,r2
   1541c:	90803fcc 	andi	r2,r18,255
   15420:	1080201c 	xori	r2,r2,128
   15424:	10bfe004 	addi	r2,r2,-128
   15428:	18af883a 	add	r23,r3,r2
   1542c:	003f6506 	br	151c4 <___vfprintf_internal_r+0x60>
   15430:	00c00404 	movi	r3,16
   15434:	00800044 	movi	r2,1
   15438:	d8c00515 	stw	r3,20(sp)
   1543c:	d8000415 	stw	zero,16(sp)
   15440:	d8800315 	stw	r2,12(sp)
   15444:	182b883a 	mov	r21,r3
   15448:	d8c00717 	ldw	r3,28(sp)
   1544c:	1805003a 	cmpeq	r2,r3,zero
   15450:	10006b1e 	bne	r2,zero,15600 <___vfprintf_internal_r+0x49c>
   15454:	d8800417 	ldw	r2,16(sp)
   15458:	10006b1e 	bne	r2,zero,15608 <___vfprintf_internal_r+0x4a4>
   1545c:	a4800017 	ldw	r18,0(r20)
   15460:	a5000104 	addi	r20,r20,4
   15464:	dd000115 	stw	r20,4(sp)
   15468:	9009883a 	mov	r4,r18
   1546c:	a80b883a 	mov	r5,r21
   15470:	00159f80 	call	159f8 <__udivsi3>
   15474:	0023883a 	mov	r17,zero
   15478:	1021883a 	mov	r16,r2
   1547c:	10006d26 	beq	r2,zero,15634 <___vfprintf_internal_r+0x4d0>
   15480:	07000044 	movi	fp,1
   15484:	e029883a 	mov	r20,fp
   15488:	a009883a 	mov	r4,r20
   1548c:	a80b883a 	mov	r5,r21
   15490:	00145ac0 	call	145ac <__mulsi3>
   15494:	8009883a 	mov	r4,r16
   15498:	a80b883a 	mov	r5,r21
   1549c:	1029883a 	mov	r20,r2
   154a0:	00159f80 	call	159f8 <__udivsi3>
   154a4:	1021883a 	mov	r16,r2
   154a8:	e7000044 	addi	fp,fp,1
   154ac:	103ff61e 	bne	r2,zero,15488 <___vfprintf_internal_r+0x324>
   154b0:	d8800817 	ldw	r2,32(sp)
   154b4:	bf2fc83a 	sub	r23,r23,fp
   154b8:	10009226 	beq	r2,zero,15704 <___vfprintf_internal_r+0x5a0>
   154bc:	8805003a 	cmpeq	r2,r17,zero
   154c0:	10000d1e 	bne	r2,zero,154f8 <___vfprintf_internal_r+0x394>
   154c4:	b0c00117 	ldw	r3,4(r22)
   154c8:	d9000917 	ldw	r4,36(sp)
   154cc:	00800b44 	movi	r2,45
   154d0:	d8800005 	stb	r2,0(sp)
   154d4:	b00b883a 	mov	r5,r22
   154d8:	d80d883a 	mov	r6,sp
   154dc:	01c00044 	movi	r7,1
   154e0:	183ee83a 	callr	r3
   154e4:	10006a1e 	bne	r2,zero,15690 <___vfprintf_internal_r+0x52c>
   154e8:	d8c00217 	ldw	r3,8(sp)
   154ec:	bdffffc4 	addi	r23,r23,-1
   154f0:	18c00044 	addi	r3,r3,1
   154f4:	d8c00215 	stw	r3,8(sp)
   154f8:	d9000917 	ldw	r4,36(sp)
   154fc:	b00b883a 	mov	r5,r22
   15500:	01800c04 	movi	r6,48
   15504:	b80f883a 	mov	r7,r23
   15508:	00150e40 	call	150e4 <print_repeat>
   1550c:	1000601e 	bne	r2,zero,15690 <___vfprintf_internal_r+0x52c>
   15510:	d8800217 	ldw	r2,8(sp)
   15514:	b8a3883a 	add	r17,r23,r2
   15518:	a0005826 	beq	r20,zero,1567c <___vfprintf_internal_r+0x518>
   1551c:	9009883a 	mov	r4,r18
   15520:	a00b883a 	mov	r5,r20
   15524:	00159f80 	call	159f8 <__udivsi3>
   15528:	11000c04 	addi	r4,r2,48
   1552c:	20c03fcc 	andi	r3,r4,255
   15530:	00800e44 	movi	r2,57
   15534:	10c0052e 	bgeu	r2,r3,1554c <___vfprintf_internal_r+0x3e8>
   15538:	d8c00317 	ldw	r3,12(sp)
   1553c:	1805003a 	cmpeq	r2,r3,zero
   15540:	10004c1e 	bne	r2,zero,15674 <___vfprintf_internal_r+0x510>
   15544:	008001c4 	movi	r2,7
   15548:	2089883a 	add	r4,r4,r2
   1554c:	b0c00117 	ldw	r3,4(r22)
   15550:	d9000005 	stb	r4,0(sp)
   15554:	d9000917 	ldw	r4,36(sp)
   15558:	b00b883a 	mov	r5,r22
   1555c:	d80d883a 	mov	r6,sp
   15560:	01c00044 	movi	r7,1
   15564:	183ee83a 	callr	r3
   15568:	1000491e 	bne	r2,zero,15690 <___vfprintf_internal_r+0x52c>
   1556c:	a009883a 	mov	r4,r20
   15570:	a80b883a 	mov	r5,r21
   15574:	00159f80 	call	159f8 <__udivsi3>
   15578:	1021883a 	mov	r16,r2
   1557c:	8c400044 	addi	r17,r17,1
   15580:	10003e26 	beq	r2,zero,1567c <___vfprintf_internal_r+0x518>
   15584:	a00b883a 	mov	r5,r20
   15588:	9009883a 	mov	r4,r18
   1558c:	0015a000 	call	15a00 <__umodsi3>
   15590:	1025883a 	mov	r18,r2
   15594:	8029883a 	mov	r20,r16
   15598:	003fe006 	br	1551c <___vfprintf_internal_r+0x3b8>
   1559c:	d9000917 	ldw	r4,36(sp)
   155a0:	b00b883a 	mov	r5,r22
   155a4:	01800804 	movi	r6,32
   155a8:	b9ffffc4 	addi	r7,r23,-1
   155ac:	00150e40 	call	150e4 <print_repeat>
   155b0:	1000371e 	bne	r2,zero,15690 <___vfprintf_internal_r+0x52c>
   155b4:	a0800017 	ldw	r2,0(r20)
   155b8:	b0c00117 	ldw	r3,4(r22)
   155bc:	d9000917 	ldw	r4,36(sp)
   155c0:	d8800005 	stb	r2,0(sp)
   155c4:	b00b883a 	mov	r5,r22
   155c8:	d80d883a 	mov	r6,sp
   155cc:	01c00044 	movi	r7,1
   155d0:	183ee83a 	callr	r3
   155d4:	10002e1e 	bne	r2,zero,15690 <___vfprintf_internal_r+0x52c>
   155d8:	d8800217 	ldw	r2,8(sp)
   155dc:	a5000104 	addi	r20,r20,4
   155e0:	0023883a 	mov	r17,zero
   155e4:	15c5883a 	add	r2,r2,r23
   155e8:	d8800215 	stw	r2,8(sp)
   155ec:	003ef506 	br	151c4 <___vfprintf_internal_r+0x60>
   155f0:	d8c00717 	ldw	r3,28(sp)
   155f4:	dd400517 	ldw	r21,20(sp)
   155f8:	1805003a 	cmpeq	r2,r3,zero
   155fc:	103f9526 	beq	r2,zero,15454 <___vfprintf_internal_r+0x2f0>
   15600:	d8c00417 	ldw	r3,16(sp)
   15604:	183f9526 	beq	r3,zero,1545c <___vfprintf_internal_r+0x2f8>
   15608:	a4800017 	ldw	r18,0(r20)
   1560c:	a5000104 	addi	r20,r20,4
   15610:	dd000115 	stw	r20,4(sp)
   15614:	903f940e 	bge	r18,zero,15468 <___vfprintf_internal_r+0x304>
   15618:	04a5c83a 	sub	r18,zero,r18
   1561c:	9009883a 	mov	r4,r18
   15620:	a80b883a 	mov	r5,r21
   15624:	00159f80 	call	159f8 <__udivsi3>
   15628:	04400044 	movi	r17,1
   1562c:	1021883a 	mov	r16,r2
   15630:	103f931e 	bne	r2,zero,15480 <___vfprintf_internal_r+0x31c>
   15634:	07000044 	movi	fp,1
   15638:	e029883a 	mov	r20,fp
   1563c:	003f9c06 	br	154b0 <___vfprintf_internal_r+0x34c>
   15640:	00800204 	movi	r2,8
   15644:	102b883a 	mov	r21,r2
   15648:	d8800515 	stw	r2,20(sp)
   1564c:	d8000415 	stw	zero,16(sp)
   15650:	003f7d06 	br	15448 <___vfprintf_internal_r+0x2e4>
   15654:	dd400517 	ldw	r21,20(sp)
   15658:	d8000415 	stw	zero,16(sp)
   1565c:	003f7a06 	br	15448 <___vfprintf_internal_r+0x2e4>
   15660:	00c00404 	movi	r3,16
   15664:	182b883a 	mov	r21,r3
   15668:	d8c00515 	stw	r3,20(sp)
   1566c:	d8000415 	stw	zero,16(sp)
   15670:	003f7506 	br	15448 <___vfprintf_internal_r+0x2e4>
   15674:	008009c4 	movi	r2,39
   15678:	003fb306 	br	15548 <___vfprintf_internal_r+0x3e4>
   1567c:	dd000117 	ldw	r20,4(sp)
   15680:	8f23883a 	add	r17,r17,fp
   15684:	dc400215 	stw	r17,8(sp)
   15688:	0023883a 	mov	r17,zero
   1568c:	003ecd06 	br	151c4 <___vfprintf_internal_r+0x60>
   15690:	00bfffc4 	movi	r2,-1
   15694:	d8800215 	stw	r2,8(sp)
   15698:	003ee706 	br	15238 <___vfprintf_internal_r+0xd4>
   1569c:	b0c00117 	ldw	r3,4(r22)
   156a0:	d9000917 	ldw	r4,36(sp)
   156a4:	d9400005 	stb	r5,0(sp)
   156a8:	d80d883a 	mov	r6,sp
   156ac:	b00b883a 	mov	r5,r22
   156b0:	183ee83a 	callr	r3
   156b4:	103ff61e 	bne	r2,zero,15690 <___vfprintf_internal_r+0x52c>
   156b8:	d8c00217 	ldw	r3,8(sp)
   156bc:	18c00044 	addi	r3,r3,1
   156c0:	d8c00215 	stw	r3,8(sp)
   156c4:	003ebf06 	br	151c4 <___vfprintf_internal_r+0x60>
   156c8:	0007883a 	mov	r3,zero
   156cc:	003f5306 	br	1541c <___vfprintf_internal_r+0x2b8>
   156d0:	b0c00117 	ldw	r3,4(r22)
   156d4:	d9000005 	stb	r4,0(sp)
   156d8:	d9000917 	ldw	r4,36(sp)
   156dc:	b00b883a 	mov	r5,r22
   156e0:	d80d883a 	mov	r6,sp
   156e4:	880f883a 	mov	r7,r17
   156e8:	183ee83a 	callr	r3
   156ec:	103fe81e 	bne	r2,zero,15690 <___vfprintf_internal_r+0x52c>
   156f0:	d8800217 	ldw	r2,8(sp)
   156f4:	1445883a 	add	r2,r2,r17
   156f8:	0023883a 	mov	r17,zero
   156fc:	d8800215 	stw	r2,8(sp)
   15700:	003eb006 	br	151c4 <___vfprintf_internal_r+0x60>
   15704:	8821003a 	cmpeq	r16,r17,zero
   15708:	80001426 	beq	r16,zero,1575c <___vfprintf_internal_r+0x5f8>
   1570c:	d9000917 	ldw	r4,36(sp)
   15710:	b00b883a 	mov	r5,r22
   15714:	01800804 	movi	r6,32
   15718:	b80f883a 	mov	r7,r23
   1571c:	00150e40 	call	150e4 <print_repeat>
   15720:	103fdb1e 	bne	r2,zero,15690 <___vfprintf_internal_r+0x52c>
   15724:	d8c00217 	ldw	r3,8(sp)
   15728:	b8e3883a 	add	r17,r23,r3
   1572c:	803f7a1e 	bne	r16,zero,15518 <___vfprintf_internal_r+0x3b4>
   15730:	b0c00117 	ldw	r3,4(r22)
   15734:	d9000917 	ldw	r4,36(sp)
   15738:	00800b44 	movi	r2,45
   1573c:	d8800005 	stb	r2,0(sp)
   15740:	b00b883a 	mov	r5,r22
   15744:	d80d883a 	mov	r6,sp
   15748:	01c00044 	movi	r7,1
   1574c:	183ee83a 	callr	r3
   15750:	103fcf1e 	bne	r2,zero,15690 <___vfprintf_internal_r+0x52c>
   15754:	8c400044 	addi	r17,r17,1
   15758:	003f6f06 	br	15518 <___vfprintf_internal_r+0x3b4>
   1575c:	bdffffc4 	addi	r23,r23,-1
   15760:	003fea06 	br	1570c <___vfprintf_internal_r+0x5a8>

00015764 <__vfprintf_internal>:
   15764:	008000b4 	movhi	r2,2
   15768:	10a13204 	addi	r2,r2,-31544
   1576c:	2013883a 	mov	r9,r4
   15770:	11000017 	ldw	r4,0(r2)
   15774:	2805883a 	mov	r2,r5
   15778:	300f883a 	mov	r7,r6
   1577c:	480b883a 	mov	r5,r9
   15780:	100d883a 	mov	r6,r2
   15784:	00151641 	jmpi	15164 <___vfprintf_internal_r>

00015788 <__sfvwrite_small_dev>:
   15788:	2880000b 	ldhu	r2,0(r5)
   1578c:	defffa04 	addi	sp,sp,-24
   15790:	dcc00315 	stw	r19,12(sp)
   15794:	1080020c 	andi	r2,r2,8
   15798:	dc800215 	stw	r18,8(sp)
   1579c:	dc400115 	stw	r17,4(sp)
   157a0:	dfc00515 	stw	ra,20(sp)
   157a4:	dd000415 	stw	r20,16(sp)
   157a8:	dc000015 	stw	r16,0(sp)
   157ac:	2825883a 	mov	r18,r5
   157b0:	2027883a 	mov	r19,r4
   157b4:	3023883a 	mov	r17,r6
   157b8:	10002026 	beq	r2,zero,1583c <__sfvwrite_small_dev+0xb4>
   157bc:	2940008f 	ldh	r5,2(r5)
   157c0:	28000f16 	blt	r5,zero,15800 <__sfvwrite_small_dev+0x78>
   157c4:	01c01b0e 	bge	zero,r7,15834 <__sfvwrite_small_dev+0xac>
   157c8:	3821883a 	mov	r16,r7
   157cc:	05010004 	movi	r20,1024
   157d0:	00000206 	br	157dc <__sfvwrite_small_dev+0x54>
   157d4:	0400170e 	bge	zero,r16,15834 <__sfvwrite_small_dev+0xac>
   157d8:	9140008f 	ldh	r5,2(r18)
   157dc:	880d883a 	mov	r6,r17
   157e0:	9809883a 	mov	r4,r19
   157e4:	800f883a 	mov	r7,r16
   157e8:	a400010e 	bge	r20,r16,157f0 <__sfvwrite_small_dev+0x68>
   157ec:	01c10004 	movi	r7,1024
   157f0:	00158440 	call	15844 <_write_r>
   157f4:	88a3883a 	add	r17,r17,r2
   157f8:	80a1c83a 	sub	r16,r16,r2
   157fc:	00bff516 	blt	zero,r2,157d4 <__sfvwrite_small_dev+0x4c>
   15800:	9080000b 	ldhu	r2,0(r18)
   15804:	00ffffc4 	movi	r3,-1
   15808:	10801014 	ori	r2,r2,64
   1580c:	9080000d 	sth	r2,0(r18)
   15810:	1805883a 	mov	r2,r3
   15814:	dfc00517 	ldw	ra,20(sp)
   15818:	dd000417 	ldw	r20,16(sp)
   1581c:	dcc00317 	ldw	r19,12(sp)
   15820:	dc800217 	ldw	r18,8(sp)
   15824:	dc400117 	ldw	r17,4(sp)
   15828:	dc000017 	ldw	r16,0(sp)
   1582c:	dec00604 	addi	sp,sp,24
   15830:	f800283a 	ret
   15834:	0007883a 	mov	r3,zero
   15838:	003ff506 	br	15810 <__sfvwrite_small_dev+0x88>
   1583c:	00ffffc4 	movi	r3,-1
   15840:	003ff306 	br	15810 <__sfvwrite_small_dev+0x88>

00015844 <_write_r>:
   15844:	defffd04 	addi	sp,sp,-12
   15848:	dc000015 	stw	r16,0(sp)
   1584c:	040000b4 	movhi	r16,2
   15850:	84215804 	addi	r16,r16,-31392
   15854:	dc400115 	stw	r17,4(sp)
   15858:	80000015 	stw	zero,0(r16)
   1585c:	2023883a 	mov	r17,r4
   15860:	2809883a 	mov	r4,r5
   15864:	300b883a 	mov	r5,r6
   15868:	380d883a 	mov	r6,r7
   1586c:	dfc00215 	stw	ra,8(sp)
   15870:	00161100 	call	16110 <write>
   15874:	1007883a 	mov	r3,r2
   15878:	00bfffc4 	movi	r2,-1
   1587c:	18800626 	beq	r3,r2,15898 <_write_r+0x54>
   15880:	1805883a 	mov	r2,r3
   15884:	dfc00217 	ldw	ra,8(sp)
   15888:	dc400117 	ldw	r17,4(sp)
   1588c:	dc000017 	ldw	r16,0(sp)
   15890:	dec00304 	addi	sp,sp,12
   15894:	f800283a 	ret
   15898:	80800017 	ldw	r2,0(r16)
   1589c:	103ff826 	beq	r2,zero,15880 <_write_r+0x3c>
   158a0:	88800015 	stw	r2,0(r17)
   158a4:	1805883a 	mov	r2,r3
   158a8:	dfc00217 	ldw	ra,8(sp)
   158ac:	dc400117 	ldw	r17,4(sp)
   158b0:	dc000017 	ldw	r16,0(sp)
   158b4:	dec00304 	addi	sp,sp,12
   158b8:	f800283a 	ret

000158bc <udivmodsi4>:
   158bc:	29001b2e 	bgeu	r5,r4,1592c <udivmodsi4+0x70>
   158c0:	28001a16 	blt	r5,zero,1592c <udivmodsi4+0x70>
   158c4:	00800044 	movi	r2,1
   158c8:	0007883a 	mov	r3,zero
   158cc:	01c007c4 	movi	r7,31
   158d0:	00000306 	br	158e0 <udivmodsi4+0x24>
   158d4:	19c01326 	beq	r3,r7,15924 <udivmodsi4+0x68>
   158d8:	18c00044 	addi	r3,r3,1
   158dc:	28000416 	blt	r5,zero,158f0 <udivmodsi4+0x34>
   158e0:	294b883a 	add	r5,r5,r5
   158e4:	1085883a 	add	r2,r2,r2
   158e8:	293ffa36 	bltu	r5,r4,158d4 <udivmodsi4+0x18>
   158ec:	10000d26 	beq	r2,zero,15924 <udivmodsi4+0x68>
   158f0:	0007883a 	mov	r3,zero
   158f4:	21400236 	bltu	r4,r5,15900 <udivmodsi4+0x44>
   158f8:	2149c83a 	sub	r4,r4,r5
   158fc:	1886b03a 	or	r3,r3,r2
   15900:	1004d07a 	srli	r2,r2,1
   15904:	280ad07a 	srli	r5,r5,1
   15908:	103ffa1e 	bne	r2,zero,158f4 <udivmodsi4+0x38>
   1590c:	30000226 	beq	r6,zero,15918 <udivmodsi4+0x5c>
   15910:	2005883a 	mov	r2,r4
   15914:	f800283a 	ret
   15918:	1809883a 	mov	r4,r3
   1591c:	2005883a 	mov	r2,r4
   15920:	f800283a 	ret
   15924:	0007883a 	mov	r3,zero
   15928:	003ff806 	br	1590c <udivmodsi4+0x50>
   1592c:	00800044 	movi	r2,1
   15930:	0007883a 	mov	r3,zero
   15934:	003fef06 	br	158f4 <udivmodsi4+0x38>

00015938 <__divsi3>:
   15938:	defffe04 	addi	sp,sp,-8
   1593c:	dc000015 	stw	r16,0(sp)
   15940:	dfc00115 	stw	ra,4(sp)
   15944:	0021883a 	mov	r16,zero
   15948:	20000c16 	blt	r4,zero,1597c <__divsi3+0x44>
   1594c:	000d883a 	mov	r6,zero
   15950:	28000e16 	blt	r5,zero,1598c <__divsi3+0x54>
   15954:	00158bc0 	call	158bc <udivmodsi4>
   15958:	1007883a 	mov	r3,r2
   1595c:	8005003a 	cmpeq	r2,r16,zero
   15960:	1000011e 	bne	r2,zero,15968 <__divsi3+0x30>
   15964:	00c7c83a 	sub	r3,zero,r3
   15968:	1805883a 	mov	r2,r3
   1596c:	dfc00117 	ldw	ra,4(sp)
   15970:	dc000017 	ldw	r16,0(sp)
   15974:	dec00204 	addi	sp,sp,8
   15978:	f800283a 	ret
   1597c:	0109c83a 	sub	r4,zero,r4
   15980:	04000044 	movi	r16,1
   15984:	000d883a 	mov	r6,zero
   15988:	283ff20e 	bge	r5,zero,15954 <__divsi3+0x1c>
   1598c:	014bc83a 	sub	r5,zero,r5
   15990:	8021003a 	cmpeq	r16,r16,zero
   15994:	003fef06 	br	15954 <__divsi3+0x1c>

00015998 <__modsi3>:
   15998:	deffff04 	addi	sp,sp,-4
   1599c:	dfc00015 	stw	ra,0(sp)
   159a0:	01800044 	movi	r6,1
   159a4:	2807883a 	mov	r3,r5
   159a8:	20000416 	blt	r4,zero,159bc <__modsi3+0x24>
   159ac:	28000c16 	blt	r5,zero,159e0 <__modsi3+0x48>
   159b0:	dfc00017 	ldw	ra,0(sp)
   159b4:	dec00104 	addi	sp,sp,4
   159b8:	00158bc1 	jmpi	158bc <udivmodsi4>
   159bc:	0109c83a 	sub	r4,zero,r4
   159c0:	28000b16 	blt	r5,zero,159f0 <__modsi3+0x58>
   159c4:	180b883a 	mov	r5,r3
   159c8:	01800044 	movi	r6,1
   159cc:	00158bc0 	call	158bc <udivmodsi4>
   159d0:	0085c83a 	sub	r2,zero,r2
   159d4:	dfc00017 	ldw	ra,0(sp)
   159d8:	dec00104 	addi	sp,sp,4
   159dc:	f800283a 	ret
   159e0:	014bc83a 	sub	r5,zero,r5
   159e4:	dfc00017 	ldw	ra,0(sp)
   159e8:	dec00104 	addi	sp,sp,4
   159ec:	00158bc1 	jmpi	158bc <udivmodsi4>
   159f0:	0147c83a 	sub	r3,zero,r5
   159f4:	003ff306 	br	159c4 <__modsi3+0x2c>

000159f8 <__udivsi3>:
   159f8:	000d883a 	mov	r6,zero
   159fc:	00158bc1 	jmpi	158bc <udivmodsi4>

00015a00 <__umodsi3>:
   15a00:	01800044 	movi	r6,1
   15a04:	00158bc1 	jmpi	158bc <udivmodsi4>

00015a08 <close>:
 *
 * ALT_CLOSE is mapped onto the close() system call in alt_syscall.h
 */
 
int ALT_CLOSE (int fildes)
{
   15a08:	defff804 	addi	sp,sp,-32
   15a0c:	dfc00715 	stw	ra,28(sp)
   15a10:	df000615 	stw	fp,24(sp)
   15a14:	df000604 	addi	fp,sp,24
   15a18:	e13ffc15 	stw	r4,-16(fp)
   * A common error case is that when the file descriptor was created, the call
   * to open() failed resulting in a negative file descriptor. This is trapped
   * below so that we don't try and process an invalid file descriptor.
   */

  fd = (fildes < 0) ? NULL : &alt_fd_list[fildes];
   15a1c:	e0bffc17 	ldw	r2,-16(fp)
   15a20:	1004803a 	cmplt	r2,r2,zero
   15a24:	1000091e 	bne	r2,zero,15a4c <close+0x44>
   15a28:	e13ffc17 	ldw	r4,-16(fp)
   15a2c:	01400304 	movi	r5,12
   15a30:	00145ac0 	call	145ac <__mulsi3>
   15a34:	1007883a 	mov	r3,r2
   15a38:	008000b4 	movhi	r2,2
   15a3c:	10a0b804 	addi	r2,r2,-32032
   15a40:	1887883a 	add	r3,r3,r2
   15a44:	e0ffff15 	stw	r3,-4(fp)
   15a48:	00000106 	br	15a50 <close+0x48>
   15a4c:	e03fff15 	stw	zero,-4(fp)
   15a50:	e0bfff17 	ldw	r2,-4(fp)
   15a54:	e0bffb15 	stw	r2,-20(fp)

  if (fd)
   15a58:	e0bffb17 	ldw	r2,-20(fp)
   15a5c:	1005003a 	cmpeq	r2,r2,zero
   15a60:	10001d1e 	bne	r2,zero,15ad8 <close+0xd0>
    /*
     * If the associated file system/device has a close function, call it so 
     * that any necessary cleanup code can run.
     */

    rval = (fd->dev->close) ? fd->dev->close(fd) : 0;
   15a64:	e0bffb17 	ldw	r2,-20(fp)
   15a68:	10800017 	ldw	r2,0(r2)
   15a6c:	10800417 	ldw	r2,16(r2)
   15a70:	1005003a 	cmpeq	r2,r2,zero
   15a74:	1000071e 	bne	r2,zero,15a94 <close+0x8c>
   15a78:	e0bffb17 	ldw	r2,-20(fp)
   15a7c:	10800017 	ldw	r2,0(r2)
   15a80:	10800417 	ldw	r2,16(r2)
   15a84:	e13ffb17 	ldw	r4,-20(fp)
   15a88:	103ee83a 	callr	r2
   15a8c:	e0bffe15 	stw	r2,-8(fp)
   15a90:	00000106 	br	15a98 <close+0x90>
   15a94:	e03ffe15 	stw	zero,-8(fp)
   15a98:	e0bffe17 	ldw	r2,-8(fp)
   15a9c:	e0bffa15 	stw	r2,-24(fp)

    /* Free the file descriptor structure and return. */

    alt_release_fd (fildes);
   15aa0:	e13ffc17 	ldw	r4,-16(fp)
   15aa4:	00160680 	call	16068 <alt_release_fd>
    if (rval < 0)
   15aa8:	e0bffa17 	ldw	r2,-24(fp)
   15aac:	1004403a 	cmpge	r2,r2,zero
   15ab0:	1000071e 	bne	r2,zero,15ad0 <close+0xc8>
    {
      ALT_ERRNO = -rval;
   15ab4:	0015b080 	call	15b08 <alt_get_errno>
   15ab8:	e0fffa17 	ldw	r3,-24(fp)
   15abc:	00c7c83a 	sub	r3,zero,r3
   15ac0:	10c00015 	stw	r3,0(r2)
      return -1;
   15ac4:	00bfffc4 	movi	r2,-1
   15ac8:	e0bffd15 	stw	r2,-12(fp)
   15acc:	00000806 	br	15af0 <close+0xe8>
    }
    return 0;
   15ad0:	e03ffd15 	stw	zero,-12(fp)
   15ad4:	00000606 	br	15af0 <close+0xe8>
  }
  else
  {
    ALT_ERRNO = EBADFD;
   15ad8:	0015b080 	call	15b08 <alt_get_errno>
   15adc:	1007883a 	mov	r3,r2
   15ae0:	00801444 	movi	r2,81
   15ae4:	18800015 	stw	r2,0(r3)
    return -1;
   15ae8:	00bfffc4 	movi	r2,-1
   15aec:	e0bffd15 	stw	r2,-12(fp)
   15af0:	e0bffd17 	ldw	r2,-12(fp)
  }
}
   15af4:	e037883a 	mov	sp,fp
   15af8:	dfc00117 	ldw	ra,4(sp)
   15afc:	df000017 	ldw	fp,0(sp)
   15b00:	dec00204 	addi	sp,sp,8
   15b04:	f800283a 	ret

00015b08 <alt_get_errno>:
#undef errno

extern int errno;

static ALT_INLINE int* alt_get_errno(void)
{
   15b08:	defffd04 	addi	sp,sp,-12
   15b0c:	dfc00215 	stw	ra,8(sp)
   15b10:	df000115 	stw	fp,4(sp)
   15b14:	df000104 	addi	fp,sp,4
  return ((alt_errno) ? alt_errno() : &errno);
   15b18:	008000b4 	movhi	r2,2
   15b1c:	10a13904 	addi	r2,r2,-31516
   15b20:	10800017 	ldw	r2,0(r2)
   15b24:	1005003a 	cmpeq	r2,r2,zero
   15b28:	1000061e 	bne	r2,zero,15b44 <alt_get_errno+0x3c>
   15b2c:	008000b4 	movhi	r2,2
   15b30:	10a13904 	addi	r2,r2,-31516
   15b34:	10800017 	ldw	r2,0(r2)
   15b38:	103ee83a 	callr	r2
   15b3c:	e0bfff15 	stw	r2,-4(fp)
   15b40:	00000306 	br	15b50 <alt_get_errno+0x48>
   15b44:	008000b4 	movhi	r2,2
   15b48:	10a15804 	addi	r2,r2,-31392
   15b4c:	e0bfff15 	stw	r2,-4(fp)
   15b50:	e0bfff17 	ldw	r2,-4(fp)
}
   15b54:	e037883a 	mov	sp,fp
   15b58:	dfc00117 	ldw	ra,4(sp)
   15b5c:	df000017 	ldw	fp,0(sp)
   15b60:	dec00204 	addi	sp,sp,8
   15b64:	f800283a 	ret

00015b68 <alt_dev_null_write>:
 * by the alt_dev_null device. It simple discards all data passed to it, and
 * indicates that the data has been successfully transmitted.
 */

static int alt_dev_null_write (alt_fd* fd, const char* ptr, int len)
{
   15b68:	defffc04 	addi	sp,sp,-16
   15b6c:	df000315 	stw	fp,12(sp)
   15b70:	df000304 	addi	fp,sp,12
   15b74:	e13ffd15 	stw	r4,-12(fp)
   15b78:	e17ffe15 	stw	r5,-8(fp)
   15b7c:	e1bfff15 	stw	r6,-4(fp)
  return len;
   15b80:	e0bfff17 	ldw	r2,-4(fp)
}
   15b84:	e037883a 	mov	sp,fp
   15b88:	df000017 	ldw	fp,0(sp)
   15b8c:	dec00104 	addi	sp,sp,4
   15b90:	f800283a 	ret

00015b94 <alt_main>:
 * devices/filesystems/components in the system; and call the entry point for
 * the users application, i.e. main().
 */

void alt_main (void)
{
   15b94:	defffd04 	addi	sp,sp,-12
   15b98:	dfc00215 	stw	ra,8(sp)
   15b9c:	df000115 	stw	fp,4(sp)
   15ba0:	df000104 	addi	fp,sp,4
#endif

  /* ALT LOG - please see HAL/sys/alt_log_printf.h for details */
  ALT_LOG_PRINT_BOOT("[alt_main.c] Entering alt_main, calling alt_irq_init.\r\n");
  /* Initialize the interrupt controller. */
  alt_irq_init (NULL);
   15ba4:	0009883a 	mov	r4,zero
   15ba8:	00162940 	call	16294 <alt_irq_init>
  ALT_LOG_PRINT_BOOT("[alt_main.c] Done OS Init, calling alt_sem_create.\r\n");
  ALT_SEM_CREATE (&alt_fd_list_lock, 1);

  /* Initialize the device drivers/software components. */
  ALT_LOG_PRINT_BOOT("[alt_main.c] Calling alt_sys_init.\r\n");
  alt_sys_init();
   15bac:	00162c80 	call	162c8 <alt_sys_init>
   * devices be present (not equal to /dev/null) and if direct drivers
   * aren't being used.
   */

    ALT_LOG_PRINT_BOOT("[alt_main.c] Redirecting IO.\r\n");
    alt_io_redirect(ALT_STDOUT, ALT_STDIN, ALT_STDERR);
   15bb0:	01000074 	movhi	r4,1
   15bb4:	211f6504 	addi	r4,r4,32148
   15bb8:	01400074 	movhi	r5,1
   15bbc:	295f6504 	addi	r5,r5,32148
   15bc0:	01800074 	movhi	r6,1
   15bc4:	319f6504 	addi	r6,r6,32148
   15bc8:	001733c0 	call	1733c <alt_io_redirect>
  /* 
   * Call the C++ constructors 
   */

  ALT_LOG_PRINT_BOOT("[alt_main.c] Calling C++ constructors.\r\n");
  _do_ctors ();
   15bcc:	0016c4c0 	call	16c4c <_do_ctors>
   * redefined as _exit()). This is in the interest of reducing code footprint,
   * in that the atexit() overhead is removed when it's not needed.
   */

  ALT_LOG_PRINT_BOOT("[alt_main.c] Calling atexit.\r\n");
  atexit (_do_dtors);
   15bd0:	01000074 	movhi	r4,1
   15bd4:	211b2c04 	addi	r4,r4,27824
   15bd8:	00175780 	call	17578 <atexit>
  ALT_LOG_PRINT_BOOT("[alt_main.c] Calling main.\r\n");

#ifdef ALT_NO_EXIT
  main (alt_argc, alt_argv, alt_envp);
#else
  result = main (alt_argc, alt_argv, alt_envp);
   15bdc:	d1202b17 	ldw	r4,-32596(gp)
   15be0:	d1602c17 	ldw	r5,-32592(gp)
   15be4:	d1a02d17 	ldw	r6,-32588(gp)
   15be8:	0010fb00 	call	10fb0 <main>
   15bec:	e0bfff15 	stw	r2,-4(fp)
  close(STDOUT_FILENO);
   15bf0:	01000044 	movi	r4,1
   15bf4:	0015a080 	call	15a08 <close>
  exit (result);
   15bf8:	e13fff17 	ldw	r4,-4(fp)
   15bfc:	001758c0 	call	1758c <exit>

00015c00 <alt_file_locked>:
 * performed for devices. Filesystems are required to handle the ioctl() call
 * themselves, and report the error from the filesystems open() function. 
 */ 

static int alt_file_locked (alt_fd* fd)
{
   15c00:	defffa04 	addi	sp,sp,-24
   15c04:	dfc00515 	stw	ra,20(sp)
